(i__main__
Curvature
p0
(dp1
S'dim'
p2
(I6
I6
tp3
sS'computed'
p4
I01
sS'Cij'
p5
ccopy_reg
_reconstructor
p6
(csympy.matrices.dense
MutableDenseMatrix
p7
c__builtin__
object
p8
Ntp9
Rp10
(dp11
S'rows'
p12
I6
sS'_mat'
p13
(lp14
csympy.core.numbers
Zero
p15
(I0
tp16
Rp17
(dp18
bacsympy.core.add
Add
p19
(csympy.core.mul
Mul
p20
(csympy.core.power
Pow
p21
(csympy.core.symbol
Symbol
p22
(S'df_3'
p23
tp24
Rp25
(dp26
S'_assumptions'
p27
g6
(csympy.core.assumptions
StdFactKB
p28
c__builtin__
dict
p29
(dp30
S'real'
p31
NsS'irrational'
p32
NsS'antihermitian'
p33
NsS'nonpositive'
p34
NsS'algebraic'
p35
NsS'zero'
p36
NsS'infinite'
p37
NsS'integer'
p38
NsS'hermitian'
p39
NsS'odd'
p40
NsS'imaginary'
p41
NsS'even'
p42
NsS'commutative'
p43
I01
sS'positive'
p44
NsS'negative'
p45
NsS'nonnegative'
p46
NsS'complex'
p47
NsS'rational'
p48
NsS'finite'
p49
Nstp50
Rp51
(dp52
S'_generator'
p53
(dp54
sbsbcsympy.core.numbers
Integer
p55
(I2
tp56
Rp57
(dp58
btp59
Rp60
(dp61
bg19
(g20
(csympy.core.numbers
Rational
p62
(I1
I36
tp63
Rp64
(dp65
bg22
(S'f_0'
p66
tp67
Rp68
(dp69
g27
g6
(g28
g29
(dp70
g31
NsS'polar'
p71
Nsg32
Nsg33
Nsg34
Nsg35
Nsg39
Nsg37
Nsg38
Nsg41
Nsg40
Nsg42
Nsg43
I01
sg36
Nsg44
Nsg45
Nsg46
Nsg47
Nsg48
Nsg49
Nstp72
Rp73
(dp74
g53
(dp75
sbsbcsympy.functions.elementary.trigonometric
sin
p76
(g20
(g57
g22
(S'f_1'
p77
tp78
Rp79
(dp80
g27
g6
(g28
g29
(dp81
g31
Nsg71
Nsg32
Nsg33
Nsg34
Nsg35
Nsg36
Nsg37
Nsg38
Nsg39
Nsg40
Nsg41
Nsg42
Nsg43
I01
sg44
Nsg45
Nsg46
Nsg47
Nsg48
Nsg49
Nstp82
Rp83
(dp84
g53
(dp85
sbsbtp86
Rp87
(dp88
btp89
Rp90
(dp91
btp92
Rp93
(dp94
bg20
(g62
(I-1
I9
tp95
Rp96
(dp97
bg68
csympy.functions.elementary.trigonometric
cos
p98
(g79
tp99
Rp100
(dp101
bg76
(g79
tp102
Rp103
(dp104
btp105
Rp106
(dp107
bg20
(g62
(I1
I9
tp108
Rp109
(dp110
bg68
g19
(g20
(g62
(I-2
I3
tp111
Rp112
(dp113
bg21
(g103
csympy.core.numbers
NegativeOne
p114
(I-1
tp115
Rp116
(dp117
btp118
Rp119
(dp120
btp121
Rp122
(dp123
bg20
(g62
(I1
I6
tp124
Rp125
(dp126
bg103
tp127
Rp128
(dp129
btp130
Rp131
(dp132
bg100
tp133
Rp134
(dp135
bg20
(g62
(I1
I27
tp136
Rp137
(dp138
bg68
g21
(csympy.functions.elementary.trigonometric
tan
p139
(g79
tp140
Rp141
(dp142
bg116
tp143
Rp144
(dp145
bg19
(g57
g21
(g103
g57
tp146
Rp147
(dp148
btp149
Rp150
(dp151
btp152
Rp153
(dp154
btp155
Rp156
(dp157
btp158
Rp159
(dp160
bg20
(g21
(g22
(S'df_4'
p161
tp162
Rp163
(dp164
g27
g6
(g28
g29
(dp165
g31
Nsg32
Nsg33
Nsg34
Nsg35
Nsg36
Nsg37
Nsg38
Nsg39
Nsg40
Nsg41
Nsg42
Nsg43
I01
sg44
Nsg45
Nsg46
Nsg47
Nsg48
Nsg49
Nstp166
Rp167
(dp168
g53
(dp169
sbsbg57
tp170
Rp171
(dp172
bg19
(g20
(g137
g68
g21
(g98
(g22
(S'f_2'
p173
tp174
Rp175
(dp176
g27
g6
(g28
g29
(dp177
g31
Nsg71
Nsg32
Nsg33
Nsg34
Nsg35
Nsg39
Nsg37
Nsg38
Nsg41
Nsg40
Nsg42
Nsg43
I01
sg36
Nsg44
Nsg45
Nsg46
Nsg47
Nsg48
Nsg49
Nstp178
Rp179
(dp180
g53
(dp181
sbsbtp182
Rp183
(dp184
bg57
tp185
Rp186
(dp187
bg144
tp188
Rp189
(dp190
bg20
(g62
(I-1
I27
tp191
Rp192
(dp193
bg68
g186
g119
g100
tp194
Rp195
(dp196
btp197
Rp198
(dp199
btp200
Rp201
(dp202
bg20
(g21
(g22
(S'df_5'
p203
tp204
Rp205
(dp206
g27
g6
(g28
g29
(dp207
g31
Nsg32
Nsg33
Nsg34
Nsg35
Nsg36
Nsg37
Nsg38
Nsg39
Nsg40
Nsg41
Nsg42
Nsg43
I01
sg44
Nsg45
Nsg46
Nsg47
Nsg48
Nsg49
Nstp208
Rp209
(dp210
g53
(dp211
sbsbg57
tp212
Rp213
(dp214
bg19
(g20
(g137
g68
g144
tp215
Rp216
(dp217
bg20
(g192
g68
g119
g100
tp218
Rp219
(dp220
btp221
Rp222
(dp223
btp224
Rp225
(dp226
bg20
(g25
g163
g19
(g20
(g109
g68
g131
g183
tp227
Rp228
(dp229
bg20
(g62
(I1
I18
tp230
Rp231
(dp232
bg68
g183
g103
tp233
Rp234
(dp235
bg20
(g62
(I2
I27
tp236
Rp237
(dp238
bg68
g144
g100
g183
tp239
Rp240
(dp241
btp242
Rp243
(dp244
btp245
Rp246
(dp247
bg20
(g25
g163
g19
(g234
g20
(g62
(I-1
I54
tp248
Rp249
(dp250
bg68
g119
g150
g183
tp251
Rp252
(dp253
bg20
(g137
g68
g144
g100
g183
tp254
Rp255
(dp256
btp257
Rp258
(dp259
btp260
Rp261
(dp262
bg20
(g25
g205
g19
(g20
(g109
g68
g131
tp263
Rp264
(dp265
bg20
(g231
g68
g103
tp266
Rp267
(dp268
bg20
(g237
g68
g144
g100
tp269
Rp270
(dp271
btp272
Rp273
(dp274
btp275
Rp276
(dp277
bg20
(g25
g205
g19
(g267
g20
(g249
g68
g119
g150
tp278
Rp279
(dp280
bg20
(g137
g68
g144
g100
tp281
Rp282
(dp283
btp284
Rp285
(dp286
btp287
Rp288
(dp289
bg20
(g57
g163
g205
g19
(g20
(g137
g68
g144
g183
tp290
Rp291
(dp292
bg20
(g192
g68
g119
g100
g183
tp293
Rp294
(dp295
btp296
Rp297
(dp298
btp299
Rp300
(dp301
btp302
Rp303
(dp304
bag19
(g20
(g60
g19
(g20
(g137
g68
g21
(g100
g57
tp305
Rp306
(dp307
bg21
(g139
(g175
tp308
Rp309
(dp310
bg116
tp311
Rp312
(dp313
btp314
Rp315
(dp316
bg20
(g192
g68
g306
g21
(g76
(g175
tp317
Rp318
(dp319
bg116
tp320
Rp321
(dp322
bg183
tp323
Rp324
(dp325
btp326
Rp327
(dp328
btp329
Rp330
(dp331
bg20
(g171
g19
(g20
(g64
g68
g76
(g20
(g57
g175
tp332
Rp333
(dp334
btp335
Rp336
(dp337
btp338
Rp339
(dp340
bg20
(g96
g68
g183
g318
tp341
Rp342
(dp343
bg20
(g109
g68
g19
(g20
(g112
g321
tp344
Rp345
(dp346
bg20
(g125
g318
tp347
Rp348
(dp349
btp350
Rp351
(dp352
bg183
tp353
Rp354
(dp355
bg20
(g137
g68
g312
g19
(g57
g21
(g318
g57
tp356
Rp357
(dp358
btp359
Rp360
(dp361
btp362
Rp363
(dp364
btp365
Rp366
(dp367
btp368
Rp369
(dp370
bg20
(g213
g19
(g20
(g137
g68
g312
tp371
Rp372
(dp373
bg20
(g192
g68
g321
g183
tp374
Rp375
(dp376
btp377
Rp378
(dp379
btp380
Rp381
(dp382
bg20
(g25
g163
g19
(g20
(g109
g68
g351
g100
tp383
Rp384
(dp385
bg20
(g231
g68
g100
g318
tp386
Rp387
(dp388
bg20
(g237
g68
g312
g100
g183
tp389
Rp390
(dp391
btp392
Rp393
(dp394
btp395
Rp396
(dp397
bg20
(g25
g163
g19
(g387
g20
(g249
g68
g321
g360
g100
tp398
Rp399
(dp400
bg20
(g137
g68
g312
g100
g183
tp401
Rp402
(dp403
btp404
Rp405
(dp406
btp407
Rp408
(dp409
bg20
(g163
g205
g19
(g20
(g109
g68
g351
tp410
Rp411
(dp412
bg20
(g231
g68
g318
tp413
Rp414
(dp415
bg20
(g237
g68
g312
g183
tp416
Rp417
(dp418
btp419
Rp420
(dp421
btp422
Rp423
(dp424
bg20
(g163
g205
g19
(g414
g20
(g249
g68
g321
g360
tp425
Rp426
(dp427
bg20
(g137
g68
g312
g183
tp428
Rp429
(dp430
btp431
Rp432
(dp433
btp434
Rp435
(dp436
bg20
(g57
g25
g205
g19
(g20
(g137
g68
g312
g100
tp437
Rp438
(dp439
bg20
(g192
g68
g321
g100
g183
tp440
Rp441
(dp442
btp443
Rp444
(dp445
btp446
Rp447
(dp448
btp449
Rp450
(dp451
bag19
(g20
(g22
(S'df_1'
p452
tp453
Rp454
(dp455
g27
g6
(g28
g29
(dp456
g31
Nsg32
Nsg33
Nsg34
Nsg35
Nsg36
Nsg37
Nsg38
Nsg39
Nsg40
Nsg41
Nsg42
Nsg43
I01
sg44
Nsg45
Nsg46
Nsg47
Nsg48
Nsg49
Nstp457
Rp458
(dp459
g53
(dp460
sbsbg25
g19
(g20
(g62
(I-1
I36
tp461
Rp462
(dp463
bg68
g90
tp464
Rp465
(dp466
bg20
(g96
g68
g131
g100
tp467
Rp468
(dp469
bg20
(g192
g68
g144
g150
tp470
Rp471
(dp472
bg20
(g109
g68
g100
g103
tp473
Rp474
(dp475
btp476
Rp477
(dp478
btp479
Rp480
(dp481
bg20
(g454
g163
g19
(g20
(g62
(I-1
I18
tp482
Rp483
(dp484
bg68
g183
g103
tp485
Rp486
(dp487
bg20
(g192
g68
g144
g100
g183
tp488
Rp489
(dp490
bg20
(g62
(I1
I54
tp491
Rp492
(dp493
bg68
g119
g150
g183
tp494
Rp495
(dp496
btp497
Rp498
(dp499
btp500
Rp501
(dp502
bg20
(g454
g163
g19
(g20
(g109
g68
g19
(g20
(g112
g119
tp503
Rp504
(dp505
bg20
(g125
g103
tp506
Rp507
(dp508
btp509
Rp510
(dp511
bg183
tp512
Rp513
(dp514
bg255
g495
tp515
Rp516
(dp517
btp518
Rp519
(dp520
bg20
(g454
g205
g19
(g20
(g483
g68
g103
tp521
Rp522
(dp523
bg20
(g192
g68
g144
g100
tp524
Rp525
(dp526
bg20
(g492
g68
g119
g150
tp527
Rp528
(dp529
btp530
Rp531
(dp532
btp533
Rp534
(dp535
bg20
(g454
g205
g19
(g20
(g109
g68
g510
tp536
Rp537
(dp538
bg282
g528
tp539
Rp540
(dp541
btp542
Rp543
(dp544
bg20
(g22
(S'df_2'
p545
tp546
Rp547
(dp548
g27
g6
(g28
g29
(dp549
g31
Nsg32
Nsg33
Nsg34
Nsg35
Nsg36
Nsg37
Nsg38
Nsg39
Nsg40
Nsg41
Nsg42
Nsg43
I01
sg44
Nsg45
Nsg46
Nsg47
Nsg48
Nsg49
Nstp550
Rp551
(dp552
g53
(dp553
sbsbg25
g19
(g20
(g192
g68
g306
g312
tp554
Rp555
(dp556
bg20
(g137
g68
g306
g321
g183
tp557
Rp558
(dp559
btp560
Rp561
(dp562
btp563
Rp564
(dp565
bg20
(g547
g163
g19
(g20
(g96
g68
g351
g100
tp566
Rp567
(dp568
bg20
(g483
g68
g100
g318
tp569
Rp570
(dp571
bg20
(g62
(I-2
I27
tp572
Rp573
(dp574
bg68
g312
g100
g183
tp575
Rp576
(dp577
btp578
Rp579
(dp580
btp581
Rp582
(dp583
bg20
(g547
g163
g19
(g567
g20
(g192
g68
g312
g100
g183
tp584
Rp585
(dp586
bg399
tp587
Rp588
(dp589
btp590
Rp591
(dp592
bg20
(g547
g205
g19
(g20
(g192
g68
g312
g100
tp593
Rp594
(dp595
bg20
(g137
g68
g321
g100
g183
tp596
Rp597
(dp598
btp599
Rp600
(dp601
btp602
Rp603
(dp604
btp605
Rp606
(dp607
bag19
(g20
(g454
g25
g19
(g20
(g96
g68
g510
g183
tp608
Rp609
(dp610
bg486
g20
(g573
g68
g144
g100
g183
tp611
Rp612
(dp613
btp614
Rp615
(dp616
btp617
Rp618
(dp619
bg20
(g454
g25
g19
(g609
g20
(g192
g68
g144
g100
g183
tp620
Rp621
(dp622
bg252
tp623
Rp624
(dp625
btp626
Rp627
(dp628
bg20
(g454
g163
g19
(g20
(g192
g68
g186
g144
tp629
Rp630
(dp631
bg20
(g137
g68
g186
g119
g100
tp632
Rp633
(dp634
btp635
Rp636
(dp637
btp638
Rp639
(dp640
bg20
(g454
g205
g19
(g20
(g192
g68
g144
g183
tp641
Rp642
(dp643
bg20
(g137
g68
g119
g100
g183
tp644
Rp645
(dp646
btp647
Rp648
(dp649
btp650
Rp651
(dp652
bg20
(g547
g25
g19
(g570
g585
g20
(g492
g68
g321
g360
g100
tp653
Rp654
(dp655
btp656
Rp657
(dp658
btp659
Rp660
(dp661
bg20
(g547
g25
g19
(g384
g20
(g137
g68
g312
g100
g183
tp662
Rp663
(dp664
bg654
tp665
Rp666
(dp667
btp668
Rp669
(dp670
bg20
(g547
g163
g19
(g20
(g462
g68
g336
tp671
Rp672
(dp673
bg20
(g96
g68
g351
g183
tp674
Rp675
(dp676
bg20
(g192
g68
g312
g360
tp677
Rp678
(dp679
bg20
(g109
g68
g183
g318
tp680
Rp681
(dp682
btp683
Rp684
(dp685
btp686
Rp687
(dp688
bg20
(g547
g205
g19
(g20
(g483
g68
g318
tp689
Rp690
(dp691
bg20
(g192
g68
g312
g183
tp692
Rp693
(dp694
bg20
(g492
g68
g321
g360
tp695
Rp696
(dp697
btp698
Rp699
(dp700
btp701
Rp702
(dp703
bg20
(g547
g205
g19
(g20
(g109
g68
g19
(g20
(g112
g321
tp704
Rp705
(dp706
bg20
(g125
g318
tp707
Rp708
(dp709
btp710
Rp711
(dp712
btp713
Rp714
(dp715
bg20
(g137
g68
g312
g183
tp716
Rp717
(dp718
bg696
tp719
Rp720
(dp721
btp722
Rp723
(dp724
btp725
Rp726
(dp727
bag19
(g20
(g454
g25
g19
(g20
(g96
g68
g131
tp728
Rp729
(dp730
bg20
(g483
g68
g103
tp731
Rp732
(dp733
bg20
(g573
g68
g144
g100
tp734
Rp735
(dp736
btp737
Rp738
(dp739
btp740
Rp741
(dp742
bg20
(g454
g25
g19
(g729
g20
(g192
g68
g144
g100
tp743
Rp744
(dp745
bg20
(g249
g68
g119
g150
tp746
Rp747
(dp748
btp749
Rp750
(dp751
btp752
Rp753
(dp754
bg20
(g454
g163
g648
tp755
Rp756
(dp757
bg20
(g454
g205
g19
(g20
(g192
g68
g144
tp758
Rp759
(dp760
bg20
(g137
g68
g119
g100
tp761
Rp762
(dp763
btp764
Rp765
(dp766
btp767
Rp768
(dp769
bg20
(g547
g25
g19
(g20
(g192
g68
g312
g100
tp770
Rp771
(dp772
bg20
(g137
g68
g321
g100
g183
tp773
Rp774
(dp775
btp776
Rp777
(dp778
btp779
Rp780
(dp781
bg20
(g547
g163
g19
(g20
(g96
g68
g711
tp782
Rp783
(dp784
bg690
g20
(g573
g68
g312
g183
tp785
Rp786
(dp787
btp788
Rp789
(dp790
btp791
Rp792
(dp793
bg20
(g547
g163
g19
(g783
g693
g20
(g249
g68
g321
g360
tp794
Rp795
(dp796
btp797
Rp798
(dp799
btp800
Rp801
(dp802
bg20
(g547
g205
g19
(g20
(g192
g68
g312
tp803
Rp804
(dp805
bg20
(g137
g68
g321
g183
tp806
Rp807
(dp808
btp809
Rp810
(dp811
btp812
Rp813
(dp814
btp815
Rp816
(dp817
bag17
ag19
(g20
(g62
(I-1
I6
tp818
Rp819
(dp820
bg21
(g547
g57
tp821
Rp822
(dp823
btp824
Rp825
(dp826
bg20
(g60
g19
(g96
g20
(g62
(I-1
I3
tp827
Rp828
(dp829
bg98
(g20
(g57
g79
tp830
Rp831
(dp832
btp833
Rp834
(dp835
btp836
Rp837
(dp838
bg20
(g483
g147
tp839
Rp840
(dp841
bg20
(g828
g131
g103
tp842
Rp843
(dp844
bg20
(g109
g144
g90
tp845
Rp846
(dp847
btp848
Rp849
(dp850
btp851
Rp852
(dp853
bg20
(g171
g19
(g96
g20
(g483
g357
tp854
Rp855
(dp856
bg20
(g109
g186
tp857
Rp858
(dp859
btp860
Rp861
(dp862
btp863
Rp864
(dp865
bg20
(g25
g163
g19
(g20
(g62
(I2
I9
tp866
Rp867
(dp868
bg100
g183
tp869
Rp870
(dp871
bg20
(g62
(I-2
I9
tp872
Rp873
(dp874
bg144
g183
g103
tp875
Rp876
(dp877
btp878
Rp879
(dp880
btp881
Rp882
(dp883
bg20
(g25
g163
g19
(g870
g20
(g96
g144
g183
g103
tp884
Rp885
(dp886
bg20
(g483
g119
g183
g90
tp887
Rp888
(dp889
btp890
Rp891
(dp892
btp893
Rp894
(dp895
bg20
(g25
g205
g19
(g20
(g867
g100
tp896
Rp897
(dp898
bg20
(g873
g144
g103
tp899
Rp900
(dp901
btp902
Rp903
(dp904
btp905
Rp906
(dp907
bg20
(g25
g205
g19
(g897
g20
(g96
g144
g103
tp908
Rp909
(dp910
bg20
(g483
g119
g90
tp911
Rp912
(dp913
btp914
Rp915
(dp916
btp917
Rp918
(dp919
btp920
Rp921
(dp922
bag19
(g20
(g60
g19
(g20
(g96
g312
g100
g103
tp923
Rp924
(dp925
bg20
(g109
g321
g100
g183
g103
tp926
Rp927
(dp928
btp929
Rp930
(dp931
btp932
Rp933
(dp934
bg20
(g125
g454
g547
tp935
Rp936
(dp937
bg20
(g25
g163
g19
(g20
(g828
g351
g103
tp938
Rp939
(dp940
bg20
(g828
g103
g318
tp941
Rp942
(dp943
bg20
(g873
g312
g183
g103
tp944
Rp945
(dp946
btp947
Rp948
(dp949
btp950
Rp951
(dp952
bg20
(g25
g205
g19
(g20
(g96
g312
g103
tp953
Rp954
(dp955
bg20
(g109
g321
g183
g103
tp956
Rp957
(dp958
btp959
Rp960
(dp961
btp962
Rp963
(dp964
bg20
(g828
g25
g163
g103
g318
tp965
Rp966
(dp967
btp968
Rp969
(dp970
bag19
(g20
(g454
g25
g19
(g109
g20
(g62
(I1
I3
tp971
Rp972
(dp973
bg834
tp974
Rp975
(dp976
bg20
(g231
g147
tp977
Rp978
(dp979
bg20
(g96
g144
g90
tp980
Rp981
(dp982
bg20
(g972
g131
g103
tp983
Rp984
(dp985
btp986
Rp987
(dp988
btp989
Rp990
(dp991
bg20
(g454
g163
g19
(g885
g20
(g231
g119
g183
g90
tp992
Rp993
(dp994
btp995
Rp996
(dp997
btp998
Rp999
(dp1000
bg20
(g454
g163
g19
(g20
(g873
g100
g183
tp1001
Rp1002
(dp1003
bg20
(g109
g144
g183
g103
tp1004
Rp1005
(dp1006
bg993
tp1007
Rp1008
(dp1009
btp1010
Rp1011
(dp1012
bg20
(g454
g205
g19
(g909
g20
(g231
g119
g90
tp1013
Rp1014
(dp1015
btp1016
Rp1017
(dp1018
btp1019
Rp1020
(dp1021
bg20
(g454
g205
g19
(g20
(g873
g100
tp1022
Rp1023
(dp1024
bg20
(g109
g144
g103
tp1025
Rp1026
(dp1027
bg1014
tp1028
Rp1029
(dp1030
btp1031
Rp1032
(dp1033
bg20
(g547
g25
g19
(g20
(g109
g312
g100
g103
tp1034
Rp1035
(dp1036
bg20
(g96
g321
g100
g183
g103
tp1037
Rp1038
(dp1039
btp1040
Rp1041
(dp1042
btp1043
Rp1044
(dp1045
bg20
(g547
g163
g19
(g20
(g972
g351
g103
tp1046
Rp1047
(dp1048
bg20
(g867
g312
g183
g103
tp1049
Rp1050
(dp1051
btp1052
Rp1053
(dp1054
btp1055
Rp1056
(dp1057
bg20
(g547
g163
g19
(g1047
g20
(g972
g103
g318
tp1058
Rp1059
(dp1060
bg1050
tp1061
Rp1062
(dp1063
btp1064
Rp1065
(dp1066
bg20
(g57
g547
g205
g19
(g20
(g109
g312
g103
tp1067
Rp1068
(dp1069
bg20
(g96
g321
g183
g103
tp1070
Rp1071
(dp1072
btp1073
Rp1074
(dp1075
btp1076
Rp1077
(dp1078
btp1079
Rp1080
(dp1081
bag19
(g20
(g454
g25
g19
(g1002
g20
(g867
g144
g183
g103
tp1082
Rp1083
(dp1084
btp1085
Rp1086
(dp1087
btp1088
Rp1089
(dp1090
bg20
(g454
g25
g19
(g888
g1005
tp1091
Rp1092
(dp1093
btp1094
Rp1095
(dp1096
bg20
(g454
g163
g19
(g109
g20
(g96
g186
tp1097
Rp1098
(dp1099
bg20
(g231
g357
tp1100
Rp1101
(dp1102
btp1103
Rp1104
(dp1105
btp1106
Rp1107
(dp1108
bg20
(g547
g25
g19
(g939
g945
tp1109
Rp1110
(dp1111
btp1112
Rp1113
(dp1114
bg20
(g972
g547
g25
g103
g318
tp1115
Rp1116
(dp1117
btp1118
Rp1119
(dp1120
bag19
(g20
(g454
g25
g19
(g20
(g873
g100
tp1121
Rp1122
(dp1123
bg20
(g867
g144
g103
tp1124
Rp1125
(dp1126
btp1127
Rp1128
(dp1129
btp1130
Rp1131
(dp1132
bg20
(g454
g25
g19
(g912
g20
(g109
g144
g103
tp1133
Rp1134
(dp1135
btp1136
Rp1137
(dp1138
btp1139
Rp1140
(dp1141
bg20
(g547
g25
g19
(g954
g957
tp1142
Rp1143
(dp1144
btp1145
Rp1146
(dp1147
btp1148
Rp1149
(dp1150
bag17
ag19
(g20
(g171
g19
(g20
(g96
g144
g183
g318
tp1151
Rp1152
(dp1153
bg20
(g109
g119
g100
g183
g318
tp1154
Rp1155
(dp1156
btp1157
Rp1158
(dp1159
btp1160
Rp1161
(dp1162
bg20
(g125
g454
g547
tp1163
Rp1164
(dp1165
bg20
(g25
g163
g19
(g20
(g828
g131
g318
tp1166
Rp1167
(dp1168
bg20
(g828
g103
g318
tp1169
Rp1170
(dp1171
bg20
(g873
g144
g100
g318
tp1172
Rp1173
(dp1174
btp1175
Rp1176
(dp1177
btp1178
Rp1179
(dp1180
bg20
(g163
g205
g19
(g20
(g96
g144
g318
tp1181
Rp1182
(dp1183
bg20
(g109
g119
g100
g318
tp1184
Rp1185
(dp1186
btp1187
Rp1188
(dp1189
btp1190
Rp1191
(dp1192
bg20
(g828
g25
g163
g103
g318
tp1193
Rp1194
(dp1195
btp1196
Rp1197
(dp1198
bag19
(g20
(g819
g21
(g454
g57
tp1199
Rp1200
(dp1201
btp1202
Rp1203
(dp1204
bg20
(g60
g19
(g96
g20
(g483
g147
tp1205
Rp1206
(dp1207
bg20
(g109
g306
tp1208
Rp1209
(dp1210
btp1211
Rp1212
(dp1213
btp1214
Rp1215
(dp1216
bg20
(g171
g19
(g96
g20
(g828
g98
(g20
(g57
g175
tp1217
Rp1218
(dp1219
btp1220
Rp1221
(dp1222
btp1223
Rp1224
(dp1225
bg20
(g483
g357
tp1226
Rp1227
(dp1228
bg20
(g828
g351
g318
tp1229
Rp1230
(dp1231
bg20
(g109
g312
g336
tp1232
Rp1233
(dp1234
btp1235
Rp1236
(dp1237
btp1238
Rp1239
(dp1240
bg20
(g25
g163
g19
(g20
(g867
g100
g183
tp1241
Rp1242
(dp1243
bg20
(g873
g312
g100
g318
tp1244
Rp1245
(dp1246
btp1247
Rp1248
(dp1249
btp1250
Rp1251
(dp1252
bg20
(g25
g163
g19
(g1242
g20
(g96
g312
g100
g318
tp1253
Rp1254
(dp1255
bg20
(g483
g321
g100
g336
tp1256
Rp1257
(dp1258
btp1259
Rp1260
(dp1261
btp1262
Rp1263
(dp1264
bg20
(g163
g205
g19
(g20
(g867
g183
tp1265
Rp1266
(dp1267
bg20
(g873
g312
g318
tp1268
Rp1269
(dp1270
btp1271
Rp1272
(dp1273
btp1274
Rp1275
(dp1276
bg20
(g163
g205
g19
(g1266
g20
(g96
g312
g318
tp1277
Rp1278
(dp1279
bg20
(g483
g321
g336
tp1280
Rp1281
(dp1282
btp1283
Rp1284
(dp1285
btp1286
Rp1287
(dp1288
btp1289
Rp1290
(dp1291
bag19
(g20
(g454
g163
g19
(g1167
g1173
tp1292
Rp1293
(dp1294
btp1295
Rp1296
(dp1297
bg20
(g547
g25
g19
(g109
g20
(g96
g306
tp1298
Rp1299
(dp1300
bg20
(g231
g147
tp1301
Rp1302
(dp1303
btp1304
Rp1305
(dp1306
btp1307
Rp1308
(dp1309
bg20
(g547
g163
g19
(g20
(g873
g100
g183
tp1310
Rp1311
(dp1312
bg20
(g867
g312
g100
g318
tp1313
Rp1314
(dp1315
btp1316
Rp1317
(dp1318
btp1319
Rp1320
(dp1321
bg20
(g547
g163
g19
(g1257
g20
(g109
g312
g100
g318
tp1322
Rp1323
(dp1324
btp1325
Rp1326
(dp1327
btp1328
Rp1329
(dp1330
bg20
(g972
g454
g163
g103
g318
tp1331
Rp1332
(dp1333
btp1334
Rp1335
(dp1336
bag19
(g20
(g454
g25
g19
(g20
(g972
g131
g318
tp1337
Rp1338
(dp1339
bg20
(g867
g144
g100
g318
tp1340
Rp1341
(dp1342
btp1343
Rp1344
(dp1345
btp1346
Rp1347
(dp1348
bg20
(g454
g25
g19
(g1338
g20
(g972
g103
g318
tp1349
Rp1350
(dp1351
bg1341
tp1352
Rp1353
(dp1354
btp1355
Rp1356
(dp1357
bg20
(g454
g163
g19
(g20
(g109
g144
g183
g318
tp1358
Rp1359
(dp1360
bg20
(g96
g119
g100
g183
g318
tp1361
Rp1362
(dp1363
btp1364
Rp1365
(dp1366
btp1367
Rp1368
(dp1369
bg20
(g547
g25
g19
(g20
(g96
g312
g100
g318
tp1370
Rp1371
(dp1372
bg20
(g231
g321
g100
g336
tp1373
Rp1374
(dp1375
btp1376
Rp1377
(dp1378
btp1379
Rp1380
(dp1381
bg20
(g547
g25
g19
(g1311
g1323
g1374
tp1382
Rp1383
(dp1384
btp1385
Rp1386
(dp1387
bg20
(g547
g163
g19
(g109
g20
(g972
g1221
tp1388
Rp1389
(dp1390
bg20
(g231
g357
tp1391
Rp1392
(dp1393
bg20
(g96
g312
g336
tp1394
Rp1395
(dp1396
bg20
(g972
g351
g318
tp1397
Rp1398
(dp1399
btp1400
Rp1401
(dp1402
btp1403
Rp1404
(dp1405
bg20
(g547
g205
g19
(g1278
g20
(g231
g321
g336
tp1406
Rp1407
(dp1408
btp1409
Rp1410
(dp1411
btp1412
Rp1413
(dp1414
bg20
(g547
g205
g19
(g20
(g873
g183
tp1415
Rp1416
(dp1417
bg20
(g109
g312
g318
tp1418
Rp1419
(dp1420
bg1407
tp1421
Rp1422
(dp1423
btp1424
Rp1425
(dp1426
bg20
(g57
g454
g205
g19
(g20
(g109
g144
g318
tp1427
Rp1428
(dp1429
bg20
(g96
g119
g100
g318
tp1430
Rp1431
(dp1432
btp1433
Rp1434
(dp1435
btp1436
Rp1437
(dp1438
btp1439
Rp1440
(dp1441
bag19
(g20
(g454
g163
g19
(g20
(g96
g144
g318
tp1442
Rp1443
(dp1444
bg20
(g109
g119
g100
g318
tp1445
Rp1446
(dp1447
btp1448
Rp1449
(dp1450
btp1451
Rp1452
(dp1453
bg20
(g547
g163
g19
(g1416
g20
(g867
g312
g318
tp1454
Rp1455
(dp1456
btp1457
Rp1458
(dp1459
btp1460
Rp1461
(dp1462
bg20
(g547
g163
g19
(g1281
g1419
tp1463
Rp1464
(dp1465
btp1466
Rp1467
(dp1468
btp1469
Rp1470
(dp1471
bag17
ag19
(g20
(g454
g25
g19
(g125
g20
(g62
(I4
I9
tp1472
Rp1473
(dp1474
bg21
(g141
g55
(I-2
tp1475
Rp1476
(dp1477
btp1478
Rp1479
(dp1480
btp1481
Rp1482
(dp1483
bg20
(g828
g119
g131
tp1484
Rp1485
(dp1486
bg20
(g62
(I2
I3
tp1487
Rp1488
(dp1489
bg1479
g19
(g116
g20
(g116
g21
(g141
g57
tp1490
Rp1491
(dp1492
btp1493
Rp1494
(dp1495
btp1496
Rp1497
(dp1498
btp1499
Rp1500
(dp1501
btp1502
Rp1503
(dp1504
btp1505
Rp1506
(dp1507
bg20
(g454
g163
g19
(g20
(g828
g119
g144
g183
tp1508
Rp1509
(dp1510
bg20
(g972
g21
(g103
g1476
tp1511
Rp1512
(dp1513
bg100
g183
tp1514
Rp1515
(dp1516
btp1517
Rp1518
(dp1519
btp1520
Rp1521
(dp1522
bg20
(g454
g205
g19
(g20
(g828
g119
g144
tp1523
Rp1524
(dp1525
bg20
(g972
g1512
g100
tp1526
Rp1527
(dp1528
btp1529
Rp1530
(dp1531
btp1532
Rp1533
(dp1534
bg20
(g547
g163
g19
(g20
(g828
g119
g351
tp1535
Rp1536
(dp1537
bg20
(g873
g119
g312
g183
tp1538
Rp1539
(dp1540
btp1541
Rp1542
(dp1543
btp1544
Rp1545
(dp1546
bg20
(g547
g163
g19
(g1536
g20
(g828
g119
g318
tp1547
Rp1548
(dp1549
bg1539
tp1550
Rp1551
(dp1552
btp1553
Rp1554
(dp1555
bg20
(g57
g547
g25
g19
(g20
(g96
g119
g312
g100
tp1556
Rp1557
(dp1558
bg20
(g109
g119
g321
g100
g183
tp1559
Rp1560
(dp1561
btp1562
Rp1563
(dp1564
btp1565
Rp1566
(dp1567
bg20
(g57
g547
g205
g19
(g20
(g96
g119
g312
tp1568
Rp1569
(dp1570
bg20
(g109
g119
g321
g183
tp1571
Rp1572
(dp1573
btp1574
Rp1575
(dp1576
btp1577
Rp1578
(dp1579
btp1580
Rp1581
(dp1582
bag19
(g20
(g125
g547
g25
tp1583
Rp1584
(dp1585
bg20
(g454
g25
g19
(g20
(g109
g119
g312
g100
tp1586
Rp1587
(dp1588
bg20
(g96
g119
g321
g100
g183
tp1589
Rp1590
(dp1591
btp1592
Rp1593
(dp1594
btp1595
Rp1596
(dp1597
bg20
(g454
g163
g19
(g20
(g972
g119
g351
tp1598
Rp1599
(dp1600
bg20
(g972
g119
g318
tp1601
Rp1602
(dp1603
bg20
(g867
g119
g312
g183
tp1604
Rp1605
(dp1606
btp1607
Rp1608
(dp1609
btp1610
Rp1611
(dp1612
bg20
(g454
g205
g19
(g20
(g109
g119
g312
tp1613
Rp1614
(dp1615
bg20
(g96
g119
g321
g183
tp1616
Rp1617
(dp1618
btp1619
Rp1620
(dp1621
btp1622
Rp1623
(dp1624
bg20
(g972
g454
g163
g119
g318
tp1625
Rp1626
(dp1627
btp1628
Rp1629
(dp1630
bag19
(g20
(g819
g822
tp1631
Rp1632
(dp1633
bg20
(g1200
g19
(g819
g20
(g62
(I-4
I9
tp1634
Rp1635
(dp1636
bg1479
tp1637
Rp1638
(dp1639
bg20
(g62
(I-2
I3
tp1640
Rp1641
(dp1642
bg1479
g1497
tp1643
Rp1644
(dp1645
bg20
(g972
g119
g131
tp1646
Rp1647
(dp1648
btp1649
Rp1650
(dp1651
btp1652
Rp1653
(dp1654
bg20
(g171
g19
(g96
g20
(g483
g357
tp1655
Rp1656
(dp1657
bg20
(g109
g186
tp1658
Rp1659
(dp1660
btp1661
Rp1662
(dp1663
btp1664
Rp1665
(dp1666
bg20
(g454
g547
g1593
tp1667
Rp1668
(dp1669
bg20
(g25
g163
g19
(g20
(g96
g100
g183
tp1670
Rp1671
(dp1672
bg20
(g483
g119
g183
g90
tp1673
Rp1674
(dp1675
bg20
(g867
g144
g183
g103
tp1676
Rp1677
(dp1678
btp1679
Rp1680
(dp1681
btp1682
Rp1683
(dp1684
bg20
(g25
g205
g19
(g20
(g96
g100
tp1685
Rp1686
(dp1687
bg20
(g483
g119
g90
tp1688
Rp1689
(dp1690
bg20
(g867
g144
g103
tp1691
Rp1692
(dp1693
btp1694
Rp1695
(dp1696
btp1697
Rp1698
(dp1699
btp1700
Rp1701
(dp1702
bag19
(g20
(g1200
g19
(g20
(g828
g1512
g100
g183
tp1703
Rp1704
(dp1705
bg20
(g972
g119
g144
g183
tp1706
Rp1707
(dp1708
btp1709
Rp1710
(dp1711
btp1712
Rp1713
(dp1714
bg20
(g60
g19
(g20
(g109
g100
g183
tp1715
Rp1716
(dp1717
bg20
(g873
g144
g183
g103
tp1718
Rp1719
(dp1720
bg20
(g231
g119
g183
g90
tp1721
Rp1722
(dp1723
btp1724
Rp1725
(dp1726
btp1727
Rp1728
(dp1729
bg20
(g454
g547
g19
(g20
(g972
g119
g711
tp1730
Rp1731
(dp1732
bg20
(g867
g119
g312
g183
tp1733
Rp1734
(dp1735
btp1736
Rp1737
(dp1738
btp1739
Rp1740
(dp1741
bg20
(g25
g163
g19
(g109
g20
(g96
g186
tp1742
Rp1743
(dp1744
bg20
(g231
g357
tp1745
Rp1746
(dp1747
btp1748
Rp1749
(dp1750
btp1751
Rp1752
(dp1753
bg20
(g828
g454
g547
g119
g318
tp1754
Rp1755
(dp1756
btp1757
Rp1758
(dp1759
bag19
(g20
(g1200
g19
(g20
(g828
g1512
g100
tp1760
Rp1761
(dp1762
bg20
(g972
g119
g144
tp1763
Rp1764
(dp1765
btp1766
Rp1767
(dp1768
btp1769
Rp1770
(dp1771
bg20
(g60
g19
(g20
(g109
g100
tp1772
Rp1773
(dp1774
bg20
(g873
g144
g103
tp1775
Rp1776
(dp1777
bg20
(g231
g119
g90
tp1778
Rp1779
(dp1780
btp1781
Rp1782
(dp1783
btp1784
Rp1785
(dp1786
bg20
(g454
g547
g19
(g20
(g109
g119
g312
tp1787
Rp1788
(dp1789
bg20
(g96
g119
g321
g183
tp1790
Rp1791
(dp1792
btp1793
Rp1794
(dp1795
btp1796
Rp1797
(dp1798
btp1799
Rp1800
(dp1801
bag17
ag19
(g20
(g125
g454
g163
tp1802
Rp1803
(dp1804
bg20
(g547
g25
g19
(g20
(g972
g321
g131
tp1805
Rp1806
(dp1807
bg20
(g972
g321
g103
tp1808
Rp1809
(dp1810
bg20
(g867
g321
g144
g100
tp1811
Rp1812
(dp1813
btp1814
Rp1815
(dp1816
btp1817
Rp1818
(dp1819
bg20
(g547
g163
g19
(g20
(g109
g321
g144
g183
tp1820
Rp1821
(dp1822
bg20
(g96
g119
g321
g100
g183
tp1823
Rp1824
(dp1825
btp1826
Rp1827
(dp1828
btp1829
Rp1830
(dp1831
bg20
(g547
g205
g19
(g20
(g109
g321
g144
tp1832
Rp1833
(dp1834
bg20
(g96
g119
g321
g100
tp1835
Rp1836
(dp1837
btp1838
Rp1839
(dp1840
btp1841
Rp1842
(dp1843
bg20
(g972
g547
g25
g321
g103
tp1844
Rp1845
(dp1846
btp1847
Rp1848
(dp1849
bag19
(g20
(g454
g25
g19
(g20
(g828
g321
g131
tp1850
Rp1851
(dp1852
bg20
(g873
g321
g144
g100
tp1853
Rp1854
(dp1855
btp1856
Rp1857
(dp1858
btp1859
Rp1860
(dp1861
bg20
(g454
g25
g19
(g1851
g20
(g828
g321
g103
tp1862
Rp1863
(dp1864
bg1854
tp1865
Rp1866
(dp1867
btp1868
Rp1869
(dp1870
bg20
(g547
g25
g19
(g20
(g828
g321
g312
g100
tp1871
Rp1872
(dp1873
bg20
(g972
g21
(g318
g1476
tp1874
Rp1875
(dp1876
bg100
g183
tp1877
Rp1878
(dp1879
btp1880
Rp1881
(dp1882
btp1883
Rp1884
(dp1885
bg20
(g547
g163
g19
(g125
g20
(g1473
g21
(g309
g1476
tp1886
Rp1887
(dp1888
btp1889
Rp1890
(dp1891
bg20
(g828
g321
g351
tp1892
Rp1893
(dp1894
bg20
(g1488
g1887
g19
(g116
g20
(g116
g21
(g309
g57
tp1895
Rp1896
(dp1897
btp1898
Rp1899
(dp1900
btp1901
Rp1902
(dp1903
btp1904
Rp1905
(dp1906
btp1907
Rp1908
(dp1909
btp1910
Rp1911
(dp1912
bg20
(g547
g205
g19
(g20
(g828
g321
g312
tp1913
Rp1914
(dp1915
bg20
(g972
g1875
g183
tp1916
Rp1917
(dp1918
btp1919
Rp1920
(dp1921
btp1922
Rp1923
(dp1924
bg20
(g57
g454
g163
g19
(g20
(g96
g321
g144
g183
tp1925
Rp1926
(dp1927
bg20
(g109
g119
g321
g100
g183
tp1928
Rp1929
(dp1930
btp1931
Rp1932
(dp1933
btp1934
Rp1935
(dp1936
bg20
(g57
g454
g205
g19
(g20
(g96
g321
g144
tp1937
Rp1938
(dp1939
bg20
(g109
g119
g321
g100
tp1940
Rp1941
(dp1942
btp1943
Rp1944
(dp1945
btp1946
Rp1947
(dp1948
btp1949
Rp1950
(dp1951
bag19
(g20
(g822
g19
(g20
(g828
g1875
g100
g183
tp1952
Rp1953
(dp1954
bg20
(g972
g321
g312
g100
tp1955
Rp1956
(dp1957
btp1958
Rp1959
(dp1960
btp1961
Rp1962
(dp1963
bg20
(g171
g19
(g20
(g109
g100
g183
tp1964
Rp1965
(dp1966
bg20
(g873
g312
g100
g318
tp1967
Rp1968
(dp1969
bg20
(g231
g321
g100
g336
tp1970
Rp1971
(dp1972
btp1973
Rp1974
(dp1975
btp1976
Rp1977
(dp1978
bg20
(g454
g547
g19
(g1806
g1812
tp1979
Rp1980
(dp1981
btp1982
Rp1983
(dp1984
bg20
(g25
g163
g19
(g109
g20
(g96
g306
tp1985
Rp1986
(dp1987
bg20
(g231
g147
tp1988
Rp1989
(dp1990
btp1991
Rp1992
(dp1993
btp1994
Rp1995
(dp1996
bg20
(g828
g454
g547
g321
g103
tp1997
Rp1998
(dp1999
btp2000
Rp2001
(dp2002
bag19
(g20
(g819
g1200
tp2003
Rp2004
(dp2005
bg20
(g822
g19
(g819
g20
(g1635
g1887
tp2006
Rp2007
(dp2008
bg20
(g1641
g1887
g1902
tp2009
Rp2010
(dp2011
bg20
(g972
g321
g351
tp2012
Rp2013
(dp2014
btp2015
Rp2016
(dp2017
btp2018
Rp2019
(dp2020
bg20
(g60
g19
(g96
g20
(g483
g147
tp2021
Rp2022
(dp2023
bg20
(g109
g306
tp2024
Rp2025
(dp2026
btp2027
Rp2028
(dp2029
btp2030
Rp2031
(dp2032
bg20
(g454
g547
g19
(g1821
g1824
tp2033
Rp2034
(dp2035
btp2036
Rp2037
(dp2038
bg20
(g25
g163
g19
(g20
(g96
g100
g183
tp2039
Rp2040
(dp2041
bg20
(g483
g321
g100
g336
tp2042
Rp2043
(dp2044
bg20
(g867
g312
g100
g318
tp2045
Rp2046
(dp2047
btp2048
Rp2049
(dp2050
btp2051
Rp2052
(dp2053
bg20
(g163
g205
g19
(g20
(g96
g183
tp2054
Rp2055
(dp2056
bg20
(g483
g321
g336
tp2057
Rp2058
(dp2059
bg20
(g867
g312
g318
tp2060
Rp2061
(dp2062
btp2063
Rp2064
(dp2065
btp2066
Rp2067
(dp2068
btp2069
Rp2070
(dp2071
bag19
(g20
(g822
g19
(g20
(g828
g1875
g183
tp2072
Rp2073
(dp2074
bg20
(g972
g321
g312
tp2075
Rp2076
(dp2077
btp2078
Rp2079
(dp2080
btp2081
Rp2082
(dp2083
bg20
(g171
g19
(g20
(g109
g183
tp2084
Rp2085
(dp2086
bg20
(g873
g312
g318
tp2087
Rp2088
(dp2089
bg20
(g231
g321
g336
tp2090
Rp2091
(dp2092
btp2093
Rp2094
(dp2095
btp2096
Rp2097
(dp2098
bg20
(g454
g547
g19
(g20
(g109
g321
g144
tp2099
Rp2100
(dp2101
bg20
(g96
g119
g321
g100
tp2102
Rp2103
(dp2104
btp2105
Rp2106
(dp2107
btp2108
Rp2109
(dp2110
btp2111
Rp2112
(dp2113
bag17
ag19
(g20
(g454
g25
g19
(g20
(g125
g100
tp2114
Rp2115
(dp2116
bg20
(g144
g131
tp2117
Rp2118
(dp2119
bg20
(g1488
g1512
g100
tp2120
Rp2121
(dp2122
btp2123
Rp2124
(dp2125
btp2126
Rp2127
(dp2128
bg20
(g454
g163
g19
(g20
(g109
g1479
g183
tp2129
Rp2130
(dp2131
bg20
(g828
g119
g131
g183
tp2132
Rp2133
(dp2134
bg20
(g972
g1479
g19
(g116
g20
(g116
g1491
tp2135
Rp2136
(dp2137
btp2138
Rp2139
(dp2140
bg183
tp2141
Rp2142
(dp2143
btp2144
Rp2145
(dp2146
btp2147
Rp2148
(dp2149
bg20
(g454
g205
g19
(g125
g20
(g109
g1479
tp2150
Rp2151
(dp2152
bg20
(g828
g119
g131
tp2153
Rp2154
(dp2155
bg20
(g972
g1479
g2139
tp2156
Rp2157
(dp2158
btp2159
Rp2160
(dp2161
btp2162
Rp2163
(dp2164
bg20
(g547
g25
g19
(g20
(g828
g312
g103
tp2165
Rp2166
(dp2167
bg20
(g109
g144
g312
g100
tp2168
Rp2169
(dp2170
bg20
(g96
g321
g144
g100
g183
tp2171
Rp2172
(dp2173
btp2174
Rp2175
(dp2176
btp2177
Rp2178
(dp2179
bg20
(g547
g25
g19
(g20
(g828
g312
g131
tp2180
Rp2181
(dp2182
bg2166
g20
(g96
g144
g312
g100
tp2183
Rp2184
(dp2185
bg2172
tp2186
Rp2187
(dp2188
btp2189
Rp2190
(dp2191
bg20
(g547
g163
g19
(g20
(g972
g144
g351
tp2192
Rp2193
(dp2194
bg20
(g867
g144
g312
g183
tp2195
Rp2196
(dp2197
btp2198
Rp2199
(dp2200
btp2201
Rp2202
(dp2203
bg20
(g547
g163
g19
(g2193
g20
(g972
g144
g318
tp2204
Rp2205
(dp2206
bg20
(g109
g144
g312
g183
tp2207
Rp2208
(dp2209
bg20
(g109
g119
g312
g100
g183
tp2210
Rp2211
(dp2212
btp2213
Rp2214
(dp2215
btp2216
Rp2217
(dp2218
bg20
(g547
g205
g19
(g20
(g109
g144
g312
tp2219
Rp2220
(dp2221
bg20
(g96
g321
g144
g183
tp2222
Rp2223
(dp2224
btp2225
Rp2226
(dp2227
btp2228
Rp2229
(dp2230
bg20
(g547
g205
g19
(g2223
g20
(g109
g119
g312
g100
tp2231
Rp2232
(dp2233
btp2234
Rp2235
(dp2236
btp2237
Rp2238
(dp2239
btp2240
Rp2241
(dp2242
bag19
(g20
(g454
g25
g19
(g20
(g972
g312
g131
tp2243
Rp2244
(dp2245
bg20
(g867
g144
g312
g100
tp2246
Rp2247
(dp2248
btp2249
Rp2250
(dp2251
btp2252
Rp2253
(dp2254
bg20
(g454
g25
g19
(g2244
g20
(g972
g312
g103
tp2255
Rp2256
(dp2257
bg2169
g20
(g109
g321
g144
g100
g183
tp2258
Rp2259
(dp2260
btp2261
Rp2262
(dp2263
btp2264
Rp2265
(dp2266
bg20
(g454
g163
g19
(g20
(g828
g144
g318
tp2267
Rp2268
(dp2269
bg2208
g20
(g96
g119
g312
g100
g183
tp2270
Rp2271
(dp2272
btp2273
Rp2274
(dp2275
btp2276
Rp2277
(dp2278
bg20
(g454
g163
g19
(g20
(g828
g144
g351
tp2279
Rp2280
(dp2281
bg2268
g20
(g96
g144
g312
g183
tp2282
Rp2283
(dp2284
bg2271
tp2285
Rp2286
(dp2287
btp2288
Rp2289
(dp2290
bg20
(g454
g205
g19
(g2220
g20
(g96
g119
g312
g100
tp2291
Rp2292
(dp2293
btp2294
Rp2295
(dp2296
btp2297
Rp2298
(dp2299
bg20
(g454
g205
g19
(g2292
g20
(g109
g321
g144
g183
tp2300
Rp2301
(dp2302
btp2303
Rp2304
(dp2305
btp2306
Rp2307
(dp2308
bg20
(g547
g25
g19
(g20
(g109
g1887
g100
tp2309
Rp2310
(dp2311
bg20
(g828
g321
g351
g100
tp2312
Rp2313
(dp2314
bg20
(g972
g1887
g19
(g116
g20
(g116
g1896
tp2315
Rp2316
(dp2317
btp2318
Rp2319
(dp2320
bg100
tp2321
Rp2322
(dp2323
btp2324
Rp2325
(dp2326
btp2327
Rp2328
(dp2329
bg20
(g547
g163
g19
(g20
(g125
g183
tp2330
Rp2331
(dp2332
bg20
(g312
g351
tp2333
Rp2334
(dp2335
bg20
(g1488
g1875
g183
tp2336
Rp2337
(dp2338
btp2339
Rp2340
(dp2341
btp2342
Rp2343
(dp2344
bg20
(g547
g205
g19
(g125
g20
(g109
g1887
tp2345
Rp2346
(dp2347
bg20
(g828
g321
g351
tp2348
Rp2349
(dp2350
bg20
(g972
g1887
g2319
tp2351
Rp2352
(dp2353
btp2354
Rp2355
(dp2356
btp2357
Rp2358
(dp2359
btp2360
Rp2361
(dp2362
bag19
(g20
(g1200
g19
(g20
(g819
g100
tp2363
Rp2364
(dp2365
bg20
(g116
g144
g131
tp2366
Rp2367
(dp2368
bg20
(g1641
g1512
g100
tp2369
Rp2370
(dp2371
btp2372
Rp2373
(dp2374
btp2375
Rp2376
(dp2377
bg20
(g822
g19
(g20
(g96
g1887
g100
tp2378
Rp2379
(dp2380
bg20
(g828
g1887
g2319
g100
tp2381
Rp2382
(dp2383
bg20
(g972
g321
g351
g100
tp2384
Rp2385
(dp2386
btp2387
Rp2388
(dp2389
btp2390
Rp2391
(dp2392
bg20
(g171
g19
(g20
(g828
g711
g100
g318
tp2393
Rp2394
(dp2395
bg20
(g96
g186
g144
g103
tp2396
Rp2397
(dp2398
bg20
(g483
g312
g100
g336
tp2399
Rp2400
(dp2401
btp2402
Rp2403
(dp2404
btp2405
Rp2406
(dp2407
bg20
(g213
g19
(g20
(g109
g100
tp2408
Rp2409
(dp2410
bg20
(g96
g144
g103
tp2411
Rp2412
(dp2413
btp2414
Rp2415
(dp2416
btp2417
Rp2418
(dp2419
bg20
(g454
g547
g19
(g2181
g20
(g873
g144
g312
g100
tp2420
Rp2421
(dp2422
btp2423
Rp2424
(dp2425
btp2426
Rp2427
(dp2428
bg20
(g454
g547
g19
(g2256
g20
(g96
g144
g312
g100
tp2429
Rp2430
(dp2431
bg2259
tp2432
Rp2433
(dp2434
btp2435
Rp2436
(dp2437
bg20
(g25
g163
g19
(g20
(g972
g510
g183
g103
tp2438
Rp2439
(dp2440
bg20
(g109
g306
g312
g318
tp2441
Rp2442
(dp2443
bg20
(g231
g144
g183
g90
tp2444
Rp2445
(dp2446
btp2447
Rp2448
(dp2449
btp2450
Rp2451
(dp2452
bg20
(g25
g205
g19
(g109
g20
(g231
g147
tp2453
Rp2454
(dp2455
bg20
(g972
g510
g103
tp2456
Rp2457
(dp2458
bg20
(g231
g144
g90
tp2459
Rp2460
(dp2461
btp2462
Rp2463
(dp2464
btp2465
Rp2466
(dp2467
bg20
(g163
g205
g19
(g20
(g109
g100
g183
tp2468
Rp2469
(dp2470
bg20
(g96
g144
g183
g103
tp2471
Rp2472
(dp2473
btp2474
Rp2475
(dp2476
btp2477
Rp2478
(dp2479
bg20
(g163
g205
g19
(g2472
g20
(g109
g312
g100
g318
tp2480
Rp2481
(dp2482
btp2483
Rp2484
(dp2485
btp2486
Rp2487
(dp2488
btp2489
Rp2490
(dp2491
bag19
(g20
(g1200
g19
(g20
(g96
g1479
g183
tp2492
Rp2493
(dp2494
bg20
(g828
g1479
g2139
g183
tp2495
Rp2496
(dp2497
bg20
(g972
g119
g131
g183
tp2498
Rp2499
(dp2500
btp2501
Rp2502
(dp2503
btp2504
Rp2505
(dp2506
bg20
(g822
g19
(g20
(g819
g183
tp2507
Rp2508
(dp2509
bg20
(g116
g312
g351
tp2510
Rp2511
(dp2512
bg20
(g1641
g1875
g183
tp2513
Rp2514
(dp2515
btp2516
Rp2517
(dp2518
btp2519
Rp2520
(dp2521
bg20
(g60
g19
(g20
(g828
g510
g183
g103
tp2522
Rp2523
(dp2524
bg20
(g96
g306
g312
g318
tp2525
Rp2526
(dp2527
bg20
(g483
g144
g183
g90
tp2528
Rp2529
(dp2530
btp2531
Rp2532
(dp2533
btp2534
Rp2535
(dp2536
bg20
(g213
g19
(g20
(g109
g183
tp2537
Rp2538
(dp2539
bg20
(g96
g312
g318
tp2540
Rp2541
(dp2542
btp2543
Rp2544
(dp2545
btp2546
Rp2547
(dp2548
bg20
(g454
g547
g19
(g20
(g828
g144
g711
tp2549
Rp2550
(dp2551
bg20
(g873
g144
g312
g183
tp2552
Rp2553
(dp2554
btp2555
Rp2556
(dp2557
btp2558
Rp2559
(dp2560
bg20
(g454
g547
g19
(g20
(g972
g144
g318
tp2561
Rp2562
(dp2563
bg20
(g96
g144
g312
g183
tp2564
Rp2565
(dp2566
bg20
(g109
g119
g312
g100
g183
tp2567
Rp2568
(dp2569
btp2570
Rp2571
(dp2572
btp2573
Rp2574
(dp2575
bg20
(g25
g163
g19
(g20
(g972
g711
g100
g318
tp2576
Rp2577
(dp2578
bg20
(g109
g186
g144
g103
tp2579
Rp2580
(dp2581
bg20
(g231
g312
g100
g336
tp2582
Rp2583
(dp2584
btp2585
Rp2586
(dp2587
btp2588
Rp2589
(dp2590
bg20
(g25
g205
g19
(g2469
g20
(g96
g312
g100
g318
tp2591
Rp2592
(dp2593
btp2594
Rp2595
(dp2596
btp2597
Rp2598
(dp2599
bg20
(g25
g205
g19
(g2592
g20
(g109
g144
g183
g103
tp2600
Rp2601
(dp2602
btp2603
Rp2604
(dp2605
btp2606
Rp2607
(dp2608
bg20
(g163
g205
g19
(g109
g20
(g231
g357
tp2609
Rp2610
(dp2611
bg20
(g972
g711
g318
tp2612
Rp2613
(dp2614
bg20
(g231
g312
g336
tp2615
Rp2616
(dp2617
btp2618
Rp2619
(dp2620
btp2621
Rp2622
(dp2623
btp2624
Rp2625
(dp2626
bag19
(g20
(g1200
g19
(g819
g20
(g96
g1479
tp2627
Rp2628
(dp2629
bg20
(g828
g1479
g2139
tp2630
Rp2631
(dp2632
bg20
(g972
g119
g131
tp2633
Rp2634
(dp2635
btp2636
Rp2637
(dp2638
btp2639
Rp2640
(dp2641
bg20
(g822
g19
(g819
g20
(g96
g1887
tp2642
Rp2643
(dp2644
bg20
(g828
g1887
g2319
tp2645
Rp2646
(dp2647
bg20
(g972
g321
g351
tp2648
Rp2649
(dp2650
btp2651
Rp2652
(dp2653
btp2654
Rp2655
(dp2656
bg20
(g60
g19
(g96
g20
(g483
g147
tp2657
Rp2658
(dp2659
bg20
(g828
g510
g103
tp2660
Rp2661
(dp2662
bg20
(g483
g144
g90
tp2663
Rp2664
(dp2665
btp2666
Rp2667
(dp2668
btp2669
Rp2670
(dp2671
bg20
(g171
g19
(g96
g20
(g483
g357
tp2672
Rp2673
(dp2674
bg20
(g828
g711
g318
tp2675
Rp2676
(dp2677
bg20
(g483
g312
g336
tp2678
Rp2679
(dp2680
btp2681
Rp2682
(dp2683
btp2684
Rp2685
(dp2686
bg20
(g454
g547
g19
(g20
(g96
g144
g312
tp2687
Rp2688
(dp2689
bg20
(g109
g119
g312
g100
tp2690
Rp2691
(dp2692
btp2693
Rp2694
(dp2695
btp2696
Rp2697
(dp2698
bg20
(g454
g547
g19
(g2688
g20
(g109
g321
g144
g183
tp2699
Rp2700
(dp2701
btp2702
Rp2703
(dp2704
btp2705
Rp2706
(dp2707
bg20
(g25
g163
g19
(g20
(g96
g100
g183
tp2708
Rp2709
(dp2710
bg2601
tp2711
Rp2712
(dp2713
btp2714
Rp2715
(dp2716
bg20
(g25
g163
g19
(g2709
g20
(g109
g312
g100
g318
tp2717
Rp2718
(dp2719
btp2720
Rp2721
(dp2722
btp2723
Rp2724
(dp2725
bg20
(g25
g205
g19
(g20
(g96
g100
tp2726
Rp2727
(dp2728
bg20
(g109
g144
g103
tp2729
Rp2730
(dp2731
btp2732
Rp2733
(dp2734
btp2735
Rp2736
(dp2737
bg20
(g163
g205
g19
(g20
(g96
g183
tp2738
Rp2739
(dp2740
bg20
(g109
g312
g318
tp2741
Rp2742
(dp2743
btp2744
Rp2745
(dp2746
btp2747
Rp2748
(dp2749
btp2750
Rp2751
(dp2752
basS'cols'
p2753
I6
sbsS'metric'
p2754
g6
(g7
g8
Ntp2755
Rp2756
(dp2757
g12
I6
sg13
(lp2758
g21
(g22
(S'p_3'
p2759
tp2760
Rp2761
(dp2762
g27
g6
(g28
g29
(dp2763
g31
Nsg71
Nsg32
Nsg33
Nsg34
Nsg35
Nsg39
Nsg37
Nsg38
Nsg41
Nsg40
Nsg42
Nsg43
I01
sg36
Nsg44
Nsg45
Nsg46
Nsg47
Nsg48
Nsg49
Nstp2764
Rp2765
(dp2766
g53
(dp2767
sbsbg57
tp2768
Rp2769
(dp2770
bag17
ag17
ag17
ag17
ag17
ag17
ag20
(g125
g21
(g68
g57
tp2771
Rp2772
(dp2773
bg2769
tp2774
Rp2775
(dp2776
bag17
ag17
ag17
ag17
ag17
ag17
ag2775
ag17
ag17
ag17
ag17
ag17
ag17
ag20
(g2772
g2769
g19
(g20
(g125
g147
tp2777
Rp2778
(dp2779
bg20
(g109
g306
tp2780
Rp2781
(dp2782
btp2783
Rp2784
(dp2785
btp2786
Rp2787
(dp2788
bag20
(g109
g2772
g2769
g100
g183
tp2789
Rp2790
(dp2791
bag20
(g109
g2772
g2769
g100
tp2792
Rp2793
(dp2794
bag17
ag17
ag17
ag2790
ag20
(g2772
g2769
g19
(g20
(g125
g357
tp2795
Rp2796
(dp2797
bg20
(g109
g186
tp2798
Rp2799
(dp2800
btp2801
Rp2802
(dp2803
btp2804
Rp2805
(dp2806
bag20
(g109
g2772
g2769
g183
tp2807
Rp2808
(dp2809
bag17
ag17
ag17
ag2793
ag2808
ag20
(g109
g2772
g2769
tp2810
Rp2811
(dp2812
basg2753
I6
sbsS'Csyms'
p2813
cnumpy.core.multiarray
_reconstruct
p2814
(cnumpy
ndarray
p2815
(I0
tp2816
S'b'
p2817
tp2818
Rp2819
(I1
(I6
I6
I6
tp2820
cnumpy
dtype
p2821
(S'O8'
p2822
I0
I1
tp2823
Rp2824
(I3
S'|'
p2825
NNNI-1
I-1
I63
tp2826
bI00
(lp2827
g17
ag17
ag17
ag17
ag17
ag17
ag17
ag20
(g819
g68
tp2828
Rp2829
(dp2830
bag17
ag17
ag17
ag17
ag17
ag17
ag2829
ag17
ag17
ag17
ag17
ag17
ag17
ag20
(g483
g68
g150
tp2831
Rp2832
(dp2833
bag20
(g96
g68
g100
g183
tp2834
Rp2835
(dp2836
bag20
(g96
g68
g100
tp2837
Rp2838
(dp2839
bag17
ag17
ag17
ag2835
ag20
(g483
g68
g360
tp2840
Rp2841
(dp2842
bag20
(g96
g68
g183
tp2843
Rp2844
(dp2845
bag17
ag17
ag17
ag2838
ag2844
ag20
(g96
g68
tp2846
Rp2847
(dp2848
bag17
ag21
(g68
g116
tp2849
Rp2850
(dp2851
bag17
ag17
ag17
ag17
ag2850
ag17
ag17
ag17
ag17
ag17
ag17
ag17
ag17
ag17
ag17
ag17
ag17
ag17
ag17
ag20
(g819
g90
tp2852
Rp2853
(dp2854
bag20
(g972
g183
g103
tp2855
Rp2856
(dp2857
bag20
(g972
g103
tp2858
Rp2859
(dp2860
bag17
ag17
ag17
ag2856
ag17
ag17
ag17
ag17
ag17
ag2859
ag17
ag17
ag17
ag17
ag2850
ag17
ag17
ag17
ag17
ag17
ag17
ag17
ag17
ag17
ag2850
ag17
ag17
ag17
ag17
ag17
ag17
ag17
ag17
ag17
ag20
(g972
g100
g318
tp2861
Rp2862
(dp2863
bag17
ag17
ag17
ag17
ag2862
ag20
(g819
g336
tp2864
Rp2865
(dp2866
bag20
(g972
g318
tp2867
Rp2868
(dp2869
bag17
ag17
ag17
ag17
ag2868
ag17
ag17
ag17
ag17
ag2850
ag17
ag17
ag17
ag17
ag17
ag20
(g1488
g144
tp2870
Rp2871
(dp2872
bag20
(g828
g119
g183
tp2873
Rp2874
(dp2875
bag20
(g828
g119
tp2876
Rp2877
(dp2878
bag17
ag17
ag17
ag17
ag17
ag17
ag2850
ag2871
ag17
ag17
ag17
ag17
ag17
ag2874
ag17
ag17
ag17
ag17
ag17
ag2877
ag17
ag17
ag17
ag17
ag17
ag17
ag17
ag17
ag2850
ag17
ag17
ag17
ag17
ag17
ag17
ag17
ag17
ag17
ag17
ag20
(g828
g321
g100
tp2879
Rp2880
(dp2881
bag20
(g1488
g312
tp2882
Rp2883
(dp2884
bag20
(g828
g321
tp2885
Rp2886
(dp2887
bag17
ag17
ag2880
ag17
ag17
ag17
ag2850
ag17
ag2883
ag17
ag17
ag17
ag17
ag17
ag2886
ag17
ag17
ag17
ag17
ag17
ag17
ag17
ag17
ag2850
ag17
ag17
ag17
ag131
ag20
(g972
g144
g183
tp2888
Rp2889
(dp2890
bag20
(g972
g144
tp2891
Rp2892
(dp2893
bag17
ag17
ag17
ag20
(g972
g312
g100
tp2894
Rp2895
(dp2896
bag351
ag20
(g972
g312
tp2897
Rp2898
(dp2899
bag17
ag510
ag20
(g972
g312
g100
tp2900
Rp2901
(dp2902
bag17
ag17
ag17
ag17
ag20
(g972
g144
g183
tp2903
Rp2904
(dp2905
bag711
ag17
ag17
ag17
ag2850
ag20
(g972
g144
tp2906
Rp2907
(dp2908
bag20
(g972
g312
tp2909
Rp2910
(dp2911
bag17
ag17
ag17
atp2912
bsS'Kij'
p2913
g6
(g7
g8
Ntp2914
Rp2915
(dp2916
g12
I6
sg13
(lp2917
g19
(g20
(g21
(g22
(S'df_0'
p2918
tp2919
Rp2920
(dp2921
g27
g6
(g28
g29
(dp2922
g31
Nsg32
Nsg33
Nsg34
Nsg35
Nsg36
Nsg37
Nsg38
Nsg39
Nsg40
Nsg41
Nsg42
Nsg43
I01
sg44
Nsg45
Nsg46
Nsg47
Nsg48
Nsg49
Nstp2923
Rp2924
(dp2925
g53
(dp2926
sbsbg57
tp2927
Rp2928
(dp2929
bg2769
g19
(g55
(I-3
tp2930
Rp2931
(dp2932
bg20
(g21
(g22
(S'H'
p2933
tp2934
Rp2935
(dp2936
g27
g6
(g28
g29
(dp2937
g31
Nsg32
Nsg33
Nsg34
Nsg35
Nsg39
Nsg37
Nsg38
Nsg41
Nsg40
Nsg42
Nsg43
I01
sg36
Nsg44
Nsg45
Nsg46
Nsg47
Nsg48
Nsg49
Nstp2938
Rp2939
(dp2940
g53
(dp2941
sbsbg1476
tp2942
Rp2943
(dp2944
bg19
(g20
(csympy.core.numbers
Half
p2945
(I1
I2
tp2946
Rp2947
(dp2948
bg2928
g2769
tp2949
Rp2950
(dp2951
bg20
(g62
(I1
I12
tp2952
Rp2953
(dp2954
bg1200
g2772
g2769
tp2955
Rp2956
(dp2957
bg20
(g2953
g822
g2772
g2769
tp2958
Rp2959
(dp2960
bg20
(g231
g213
g2772
g2769
tp2961
Rp2962
(dp2963
bg20
(g2947
g60
g2772
g2769
g2784
tp2964
Rp2965
(dp2966
bg20
(g2947
g171
g2772
g2769
g2802
tp2967
Rp2968
(dp2969
bg20
(g62
(I1
I9
tp2970
Rp2971
(dp2972
bg25
g205
g2772
g2769
g100
tp2973
Rp2974
(dp2975
bg20
(g2971
g163
g205
g2772
g2769
g183
tp2976
Rp2977
(dp2978
bg20
(g2971
g25
g163
g2772
g2769
g100
g183
tp2979
Rp2980
(dp2981
btp2982
Rp2983
(dp2984
btp2985
Rp2986
(dp2987
btp2988
Rp2989
(dp2990
btp2991
Rp2992
(dp2993
bg20
(g1476
g22
(S'ddf_0'
p2994
tp2995
Rp2996
(dp2997
g27
g6
(g28
g29
(dp2998
g43
I01
sg33
Nsg34
Nsg44
Nsg45
Nsg46
Nsg35
Nsg36
Nsg47
Nsg48
Nsg37
Nsg39
Nsg49
Nsg32
Nstp2999
Rp3000
(dp3001
g53
(dp3002
sbsbg2920
g21
(g2935
g116
tp3003
Rp3004
(dp3005
bg2769
tp3006
Rp3007
(dp3008
bg20
(g62
(I1
I3
tp3009
Rp3010
(dp3011
bg2920
g68
g3004
g1200
g2769
tp3012
Rp3013
(dp3014
bg20
(g3010
g2920
g68
g3004
g822
g2769
tp3015
Rp3016
(dp3017
bg20
(g62
(I2
I9
tp3018
Rp3019
(dp3020
bg2920
g68
g3004
g213
g2769
tp3021
Rp3022
(dp3023
bg20
(g2920
g68
g3004
g60
g2769
g2784
tp3024
Rp3025
(dp3026
bg20
(g2920
g68
g3004
g171
g2769
g2802
tp3027
Rp3028
(dp3029
bg20
(g231
g2920
g68
g3004
g60
g2769
g150
tp3030
Rp3031
(dp3032
bg20
(g231
g2920
g68
g3004
g171
g2769
g360
tp3033
Rp3034
(dp3035
bg20
(g62
(I4
I9
tp3036
Rp3037
(dp3038
bg2920
g25
g205
g68
g3004
g2769
g100
tp3039
Rp3040
(dp3041
bg20
(g3037
g2920
g163
g205
g68
g3004
g2769
g183
tp3042
Rp3043
(dp3044
bg20
(g3037
g2920
g25
g163
g68
g3004
g2769
g100
g183
tp3045
Rp3046
(dp3047
btp3048
Rp3049
(dp3050
bag19
(g20
(g819
g3004
g2772
g2769
g19
(g20
(g2996
g454
tp3051
Rp3052
(dp3053
bg20
(g22
(S'ddf_1'
p3054
tp3055
Rp3056
(dp3057
g27
g6
(g28
g29
(dp3058
g32
Nsg33
Nsg34
Nsg44
Nsg45
Nsg46
Nsg35
Nsg36
Nsg47
Nsg48
Nsg37
Nsg39
Nsg49
Nsg43
I01
stp3059
Rp3060
(dp3061
g53
(dp3062
sbsbg2920
tp3063
Rp3064
(dp3065
btp3066
Rp3067
(dp3068
btp3069
Rp3070
(dp3071
bg20
(g64
g3004
g21
(g454
g55
(I3
tp3072
Rp3073
(dp3074
btp3075
Rp3076
(dp3077
bg21
(g68
g3073
tp3078
Rp3079
(dp3080
bg2769
tp3081
Rp3082
(dp3083
bg20
(g62
(I-1
I3
tp3084
Rp3085
(dp3086
bg454
g68
g3004
g2928
g2769
tp3087
Rp3088
(dp3089
bg20
(g125
g2920
g454
g2772
g2769
g2989
tp3090
Rp3091
(dp3092
bg20
(g64
g454
g3004
g822
g3079
g2769
tp3093
Rp3094
(dp3095
bg20
(g492
g454
g3004
g213
g3079
g2769
tp3096
Rp3097
(dp3098
bg20
(g137
g2920
g3004
g213
g2772
g2769
g144
tp3099
Rp3100
(dp3101
bg20
(g62
(I1
I108
tp3102
Rp3103
(dp3104
bg454
g3004
g60
g3079
g2769
g150
tp3105
Rp3106
(dp3107
bg20
(g3103
g454
g3004
g171
g3079
g2769
g360
tp3108
Rp3109
(dp3110
bg20
(g192
g2920
g3004
g213
g2772
g2769
g119
g100
tp3111
Rp3112
(dp3113
bg20
(g109
g2920
g25
g205
g3004
g2772
g2769
g131
tp3114
Rp3115
(dp3116
bg20
(g109
g2920
g3004
g60
g2772
g2769
g131
g100
tp3117
Rp3118
(dp3119
bg20
(g137
g2920
g3004
g171
g2772
g2769
g186
g144
tp3120
Rp3121
(dp3122
bg20
(g62
(I1
I27
tp3123
Rp3124
(dp3125
bg454
g25
g205
g3004
g3079
g2769
g100
tp3126
Rp3127
(dp3128
bg20
(g3124
g454
g163
g205
g3004
g3079
g2769
g183
tp3129
Rp3130
(dp3131
bg20
(g1488
g2920
g3004
g60
g2772
g2769
g144
g2784
tp3132
Rp3133
(dp3134
bg20
(g828
g2920
g25
g205
g3004
g2772
g2769
g119
g2784
tp3135
Rp3136
(dp3137
bg20
(g192
g2920
g3004
g171
g2772
g2769
g186
g119
g100
tp3138
Rp3139
(dp3140
bg20
(g109
g2920
g25
g163
g3004
g2772
g2769
g131
g183
tp3141
Rp3142
(dp3143
bg20
(g62
(I1
I9
tp3144
Rp3145
(dp3146
bg2920
g25
g205
g3004
g2772
g2769
g144
g100
tp3147
Rp3148
(dp3149
bg20
(g3124
g454
g25
g163
g3004
g3079
g2769
g100
g183
tp3150
Rp3151
(dp3152
bg20
(g62
(I2
I27
tp3153
Rp3154
(dp3155
bg2920
g163
g205
g3004
g2772
g2769
g144
g183
tp3156
Rp3157
(dp3158
bg20
(g62
(I-2
I27
tp3159
Rp3160
(dp3161
bg2920
g163
g205
g3004
g2772
g2769
g119
g100
g183
tp3162
Rp3163
(dp3164
bg20
(g828
g2920
g25
g163
g3004
g2772
g2769
g119
g2784
g183
tp3165
Rp3166
(dp3167
bg20
(g3145
g2920
g25
g163
g3004
g2772
g2769
g144
g100
g183
tp3168
Rp3169
(dp3170
btp3171
Rp3172
(dp3173
bag19
(g20
(g819
g3004
g2772
g2769
g19
(g20
(g2996
g547
tp3174
Rp3175
(dp3176
bg20
(g22
(S'ddf_2'
p3177
tp3178
Rp3179
(dp3180
g27
g6
(g28
g29
(dp3181
g43
I01
sg33
Nsg34
Nsg44
Nsg45
Nsg46
Nsg35
Nsg36
Nsg47
Nsg48
Nsg37
Nsg39
Nsg49
Nsg32
Nstp3182
Rp3183
(dp3184
g53
(dp3185
sbsbg2920
tp3186
Rp3187
(dp3188
btp3189
Rp3190
(dp3191
btp3192
Rp3193
(dp3194
bg20
(g64
g3004
g21
(g547
g3073
tp3195
Rp3196
(dp3197
bg3079
g2769
tp3198
Rp3199
(dp3200
bg20
(g3085
g547
g68
g3004
g2928
g2769
tp3201
Rp3202
(dp3203
bg20
(g125
g2920
g547
g2772
g2769
g2989
tp3204
Rp3205
(dp3206
bg20
(g64
g547
g3004
g1200
g3079
g2769
tp3207
Rp3208
(dp3209
bg20
(g492
g547
g3004
g213
g3079
g2769
tp3210
Rp3211
(dp3212
bg20
(g137
g2920
g3004
g213
g2772
g2769
g312
tp3213
Rp3214
(dp3215
bg20
(g3103
g547
g3004
g60
g3079
g2769
g150
tp3216
Rp3217
(dp3218
bg20
(g3103
g547
g3004
g171
g3079
g2769
g360
tp3219
Rp3220
(dp3221
bg20
(g192
g2920
g3004
g213
g2772
g2769
g321
g183
tp3222
Rp3223
(dp3224
bg20
(g109
g2920
g163
g205
g3004
g2772
g2769
g351
tp3225
Rp3226
(dp3227
bg20
(g109
g2920
g3004
g171
g2772
g2769
g351
g183
tp3228
Rp3229
(dp3230
bg20
(g137
g2920
g3004
g60
g2772
g2769
g306
g312
tp3231
Rp3232
(dp3233
bg20
(g3124
g547
g25
g205
g3004
g3079
g2769
g100
tp3234
Rp3235
(dp3236
bg20
(g3124
g547
g163
g205
g3004
g3079
g2769
g183
tp3237
Rp3238
(dp3239
bg20
(g1488
g2920
g3004
g171
g2772
g2769
g312
g2802
tp3240
Rp3241
(dp3242
bg20
(g828
g2920
g163
g205
g3004
g2772
g2769
g321
g2802
tp3243
Rp3244
(dp3245
bg20
(g192
g2920
g3004
g60
g2772
g2769
g306
g321
g183
tp3246
Rp3247
(dp3248
bg20
(g109
g2920
g25
g163
g3004
g2772
g2769
g351
g100
tp3249
Rp3250
(dp3251
bg20
(g3145
g2920
g163
g205
g3004
g2772
g2769
g312
g183
tp3252
Rp3253
(dp3254
bg20
(g3124
g547
g25
g163
g3004
g3079
g2769
g100
g183
tp3255
Rp3256
(dp3257
bg20
(g3154
g2920
g25
g205
g3004
g2772
g2769
g312
g100
tp3258
Rp3259
(dp3260
bg20
(g3160
g2920
g25
g205
g3004
g2772
g2769
g321
g100
g183
tp3261
Rp3262
(dp3263
bg20
(g828
g2920
g25
g163
g3004
g2772
g2769
g321
g2802
g100
tp3264
Rp3265
(dp3266
bg20
(g3145
g2920
g25
g163
g3004
g2772
g2769
g312
g100
g183
tp3267
Rp3268
(dp3269
btp3270
Rp3271
(dp3272
bag19
(g20
(g116
g3004
g2772
g2769
g2784
g19
(g20
(g2996
g25
tp3273
Rp3274
(dp3275
bg20
(g22
(S'ddf_3'
p3276
tp3277
Rp3278
(dp3279
g27
g6
(g28
g29
(dp3280
g43
I01
sg33
Nsg34
Nsg44
Nsg45
Nsg46
Nsg35
Nsg36
Nsg47
Nsg48
Nsg37
Nsg39
Nsg49
Nsg32
Nstp3281
Rp3282
(dp3283
g53
(dp3284
sbsbg2920
tp3285
Rp3286
(dp3287
btp3288
Rp3289
(dp3290
btp3291
Rp3292
(dp3293
bg20
(g96
g3004
g2772
g2769
g19
(g20
(g2996
g205
tp3294
Rp3295
(dp3296
bg20
(g22
(S'ddf_5'
p3297
tp3298
Rp3299
(dp3300
g27
g6
(g28
g29
(dp3301
g43
I01
sg33
Nsg34
Nsg44
Nsg45
Nsg46
Nsg35
Nsg36
Nsg47
Nsg48
Nsg37
Nsg39
Nsg49
Nsg32
Nstp3302
Rp3303
(dp3304
g53
(dp3305
sbsbg2920
tp3306
Rp3307
(dp3308
btp3309
Rp3310
(dp3311
bg100
tp3312
Rp3313
(dp3314
bg20
(g62
(I1
I81
tp3315
Rp3316
(dp3317
bg3004
g21
(g205
g3073
tp3318
Rp3319
(dp3320
bg3079
g2769
g100
tp3321
Rp3322
(dp3323
bg20
(g2920
g25
g2772
g2769
g2989
g2784
tp3324
Rp3325
(dp3326
bg20
(g116
g25
g68
g3004
g2928
g2769
g2784
tp3327
Rp3328
(dp3329
bg20
(g873
g205
g68
g3004
g2928
g2769
g100
tp3330
Rp3331
(dp3332
bg20
(g96
g3004
g2772
g2769
g19
(g20
(g2996
g163
tp3333
Rp3334
(dp3335
bg20
(g22
(S'ddf_4'
p3336
tp3337
Rp3338
(dp3339
g27
g6
(g28
g29
(dp3340
g43
I01
sg33
Nsg34
Nsg44
Nsg45
Nsg46
Nsg35
Nsg36
Nsg47
Nsg48
Nsg37
Nsg39
Nsg49
Nsg32
Nstp3341
Rp3342
(dp3343
g53
(dp3344
sbsbg2920
tp3345
Rp3346
(dp3347
btp3348
Rp3349
(dp3350
bg100
g183
tp3351
Rp3352
(dp3353
bg20
(g483
g25
g68
g3004
g2928
g2769
g150
tp3354
Rp3355
(dp3356
bg20
(g125
g25
g3004
g1200
g3079
g2769
g2784
tp3357
Rp3358
(dp3359
bg20
(g125
g25
g3004
g822
g3079
g2769
g2784
tp3360
Rp3361
(dp3362
bg20
(g109
g2920
g205
g2772
g2769
g2989
g100
tp3363
Rp3364
(dp3365
bg20
(g109
g25
g3004
g213
g3079
g2769
g2784
tp3366
Rp3367
(dp3368
bg20
(g231
g3004
g21
(g25
g3073
tp3369
Rp3370
(dp3371
bg3079
g2769
g150
g2784
tp3372
Rp3373
(dp3374
bg20
(g492
g205
g3004
g1200
g3079
g2769
g100
tp3375
Rp3376
(dp3377
bg20
(g492
g205
g3004
g822
g3079
g2769
g100
tp3378
Rp3379
(dp3380
bg20
(g62
(I2
I81
tp3381
Rp3382
(dp3383
bg25
g3004
g213
g3079
g2769
g306
tp3384
Rp3385
(dp3386
bg20
(g873
g163
g68
g3004
g2928
g2769
g100
g183
tp3387
Rp3388
(dp3389
bg20
(g462
g2920
g454
g25
g3004
g2772
g2769
g90
tp3390
Rp3391
(dp3392
bg20
(g62
(I1
I6
tp3393
Rp3394
(dp3395
bg2920
g454
g205
g3004
g2772
g2769
g103
tp3396
Rp3397
(dp3398
bg20
(g109
g2920
g454
g205
g3004
g2772
g2769
g510
tp3399
Rp3400
(dp3401
bg20
(g109
g2920
g163
g2772
g2769
g2989
g100
g183
tp3402
Rp3403
(dp3404
bg20
(g231
g25
g3004
g171
g3079
g2769
g360
g2784
tp3405
Rp3406
(dp3407
bg20
(g62
(I1
I27
tp3408
Rp3409
(dp3410
bg163
g3004
g213
g3079
g2769
g100
g183
tp3411
Rp3412
(dp3413
bg20
(g492
g163
g3004
g1200
g3079
g2769
g100
g183
tp3414
Rp3415
(dp3416
bg20
(g492
g163
g3004
g822
g3079
g2769
g100
g183
tp3417
Rp3418
(dp3419
bg20
(g62
(I1
I162
tp3420
Rp3421
(dp3422
bg205
g3004
g60
g3079
g2769
g150
g100
tp3423
Rp3424
(dp3425
bg20
(g3421
g205
g3004
g171
g3079
g2769
g360
g100
tp3426
Rp3427
(dp3428
bg20
(g3421
g3004
g21
(g163
g3073
tp3429
Rp3430
(dp3431
bg3079
g2769
g360
g100
g183
tp3432
Rp3433
(dp3434
bg20
(g3019
g205
g3004
g60
g3079
g2769
g2784
g100
tp3435
Rp3436
(dp3437
bg20
(g3382
g25
g3004
g171
g3079
g2769
g306
g186
tp3438
Rp3439
(dp3440
bg20
(g3382
g205
g3004
g171
g3079
g2769
g186
g100
tp3441
Rp3442
(dp3443
bg20
(g96
g2920
g454
g25
g3004
g2772
g2769
g100
g103
tp3444
Rp3445
(dp3446
bg20
(g3394
g2920
g454
g163
g3004
g2772
g2769
g183
g103
tp3447
Rp3448
(dp3449
bg20
(g3394
g2920
g547
g163
g3004
g2772
g2769
g100
g318
tp3450
Rp3451
(dp3452
bg20
(g109
g2920
g454
g25
g3004
g2772
g2769
g510
g100
tp3453
Rp3454
(dp3455
bg20
(g109
g2920
g454
g163
g3004
g2772
g2769
g510
g183
tp3456
Rp3457
(dp3458
bg20
(g137
g2920
g547
g25
g3004
g2772
g2769
g306
g312
tp3459
Rp3460
(dp3461
bg20
(g137
g2920
g547
g205
g3004
g2772
g2769
g312
g100
tp3462
Rp3463
(dp3464
bg20
(g3421
g163
g3004
g60
g3079
g2769
g150
g100
g183
tp3465
Rp3466
(dp3467
bg20
(g1488
g2920
g454
g25
g3004
g2772
g2769
g144
g2784
tp3468
Rp3469
(dp3470
bg20
(g3019
g25
g163
g205
g3004
g3079
g2769
g2784
g183
tp3471
Rp3472
(dp3473
bg20
(g3019
g163
g3004
g60
g3079
g2769
g2784
g100
g183
tp3474
Rp3475
(dp3476
bg20
(g237
g2920
g454
g205
g3004
g2772
g2769
g144
g100
tp3477
Rp3478
(dp3479
bg20
(g62
(I4
I81
tp3480
Rp3481
(dp3482
bg25
g163
g205
g3004
g3079
g2769
g306
g183
tp3483
Rp3484
(dp3485
bg20
(g828
g2920
g547
g163
g3004
g2772
g2769
g321
g2802
g100
tp3486
Rp3487
(dp3488
bg20
(g192
g2920
g547
g25
g3004
g2772
g2769
g306
g321
g183
tp3489
Rp3490
(dp3491
bg20
(g192
g2920
g547
g205
g3004
g2772
g2769
g321
g100
g183
tp3492
Rp3493
(dp3494
bg20
(g137
g2920
g547
g163
g3004
g2772
g2769
g312
g100
g183
tp3495
Rp3496
(dp3497
bg20
(g237
g2920
g454
g163
g3004
g2772
g2769
g144
g100
g183
tp3498
Rp3499
(dp3500
btp3501
Rp3502
(dp3503
bag19
(g20
(g116
g3004
g2772
g2769
g2802
g3349
tp3504
Rp3505
(dp3506
bg20
(g96
g3004
g2772
g2769
g3310
g183
tp3507
Rp3508
(dp3509
bg20
(g3316
g3004
g3319
g3079
g2769
g183
tp3510
Rp3511
(dp3512
bg20
(g2920
g163
g2772
g2769
g2989
g2802
tp3513
Rp3514
(dp3515
bg20
(g116
g163
g68
g3004
g2928
g2769
g2802
tp3516
Rp3517
(dp3518
bg20
(g873
g205
g68
g3004
g2928
g2769
g183
tp3519
Rp3520
(dp3521
bg20
(g96
g3004
g2772
g2769
g3289
g100
g183
tp3522
Rp3523
(dp3524
bg20
(g483
g163
g68
g3004
g2928
g2769
g360
tp3525
Rp3526
(dp3527
bg20
(g125
g163
g3004
g1200
g3079
g2769
g2802
tp3528
Rp3529
(dp3530
bg20
(g125
g163
g3004
g822
g3079
g2769
g2802
tp3531
Rp3532
(dp3533
bg20
(g109
g2920
g205
g2772
g2769
g2989
g183
tp3534
Rp3535
(dp3536
bg20
(g109
g163
g3004
g213
g3079
g2769
g2802
tp3537
Rp3538
(dp3539
bg20
(g231
g3004
g3430
g3079
g2769
g360
g2802
tp3540
Rp3541
(dp3542
bg20
(g492
g205
g3004
g1200
g3079
g2769
g183
tp3543
Rp3544
(dp3545
bg20
(g492
g205
g3004
g822
g3079
g2769
g183
tp3546
Rp3547
(dp3548
bg20
(g3382
g163
g3004
g213
g3079
g2769
g186
tp3549
Rp3550
(dp3551
bg20
(g62
(I-2
I9
tp3552
Rp3553
(dp3554
bg25
g68
g3004
g2928
g2769
g100
g183
tp3555
Rp3556
(dp3557
bg20
(g462
g2920
g547
g163
g3004
g2772
g2769
g336
tp3558
Rp3559
(dp3560
bg20
(g3394
g2920
g547
g205
g3004
g2772
g2769
g318
tp3561
Rp3562
(dp3563
bg20
(g109
g2920
g547
g205
g3004
g2772
g2769
g711
tp3564
Rp3565
(dp3566
bg20
(g109
g2920
g25
g2772
g2769
g2989
g100
g183
tp3567
Rp3568
(dp3569
bg20
(g231
g163
g3004
g60
g3079
g2769
g150
g2802
tp3570
Rp3571
(dp3572
bg20
(g3409
g25
g3004
g213
g3079
g2769
g100
g183
tp3573
Rp3574
(dp3575
bg20
(g492
g25
g3004
g1200
g3079
g2769
g100
g183
tp3576
Rp3577
(dp3578
bg20
(g492
g25
g3004
g822
g3079
g2769
g100
g183
tp3579
Rp3580
(dp3581
bg20
(g3421
g205
g3004
g60
g3079
g2769
g150
g183
tp3582
Rp3583
(dp3584
bg20
(g3421
g205
g3004
g171
g3079
g2769
g360
g183
tp3585
Rp3586
(dp3587
bg20
(g3421
g3004
g3370
g3079
g2769
g150
g100
g183
tp3588
Rp3589
(dp3590
bg20
(g3019
g205
g3004
g171
g3079
g2769
g2802
g183
tp3591
Rp3592
(dp3593
bg20
(g3382
g163
g3004
g60
g3079
g2769
g306
g186
tp3594
Rp3595
(dp3596
bg20
(g3382
g205
g3004
g60
g3079
g2769
g306
g183
tp3597
Rp3598
(dp3599
bg20
(g96
g2920
g547
g163
g3004
g2772
g2769
g183
g318
tp3600
Rp3601
(dp3602
bg20
(g3394
g2920
g454
g25
g3004
g2772
g2769
g183
g103
tp3603
Rp3604
(dp3605
bg20
(g3394
g2920
g547
g25
g3004
g2772
g2769
g100
g318
tp3606
Rp3607
(dp3608
bg20
(g109
g2920
g547
g25
g3004
g2772
g2769
g711
g100
tp3609
Rp3610
(dp3611
bg20
(g109
g2920
g547
g163
g3004
g2772
g2769
g711
g183
tp3612
Rp3613
(dp3614
bg20
(g137
g2920
g454
g163
g3004
g2772
g2769
g186
g144
tp3615
Rp3616
(dp3617
bg20
(g137
g2920
g454
g205
g3004
g2772
g2769
g144
g183
tp3618
Rp3619
(dp3620
bg20
(g3421
g25
g3004
g171
g3079
g2769
g360
g100
g183
tp3621
Rp3622
(dp3623
bg20
(g1488
g2920
g547
g163
g3004
g2772
g2769
g312
g2802
tp3624
Rp3625
(dp3626
bg20
(g3019
g25
g163
g205
g3004
g3079
g2769
g2802
g100
tp3627
Rp3628
(dp3629
bg20
(g3019
g25
g3004
g171
g3079
g2769
g2802
g100
g183
tp3630
Rp3631
(dp3632
bg20
(g237
g2920
g547
g205
g3004
g2772
g2769
g312
g183
tp3633
Rp3634
(dp3635
bg20
(g3481
g25
g163
g205
g3004
g3079
g2769
g186
g100
tp3636
Rp3637
(dp3638
bg20
(g828
g2920
g454
g25
g3004
g2772
g2769
g119
g2784
g183
tp3639
Rp3640
(dp3641
bg20
(g192
g2920
g454
g163
g3004
g2772
g2769
g186
g119
g100
tp3642
Rp3643
(dp3644
bg20
(g192
g2920
g454
g205
g3004
g2772
g2769
g119
g100
g183
tp3645
Rp3646
(dp3647
bg20
(g137
g2920
g454
g25
g3004
g2772
g2769
g144
g100
g183
tp3648
Rp3649
(dp3650
bg20
(g237
g2920
g547
g25
g3004
g2772
g2769
g312
g100
g183
tp3651
Rp3652
(dp3653
btp3654
Rp3655
(dp3656
bag19
(g20
(g96
g3004
g2772
g2769
g3310
tp3657
Rp3658
(dp3659
bg20
(g3316
g3004
g3319
g3079
g2769
tp3660
Rp3661
(dp3662
bg20
(g3553
g205
g68
g3004
g2928
g2769
tp3663
Rp3664
(dp3665
bg20
(g96
g3004
g2772
g2769
g3289
g100
tp3666
Rp3667
(dp3668
bg20
(g96
g3004
g2772
g2769
g3349
g183
tp3669
Rp3670
(dp3671
bg20
(g109
g2920
g205
g2772
g2769
g2989
tp3672
Rp3673
(dp3674
bg20
(g492
g205
g3004
g1200
g3079
g2769
tp3675
Rp3676
(dp3677
bg20
(g492
g205
g3004
g822
g3079
g2769
tp3678
Rp3679
(dp3680
bg20
(g3553
g25
g68
g3004
g2928
g2769
g100
tp3681
Rp3682
(dp3683
bg20
(g3553
g163
g68
g3004
g2928
g2769
g183
tp3684
Rp3685
(dp3686
bg20
(g109
g2920
g25
g2772
g2769
g2989
g100
tp3687
Rp3688
(dp3689
bg20
(g109
g2920
g163
g2772
g2769
g2989
g183
tp3690
Rp3691
(dp3692
bg20
(g3409
g25
g3004
g213
g3079
g2769
g100
tp3693
Rp3694
(dp3695
bg20
(g3409
g163
g3004
g213
g3079
g2769
g183
tp3696
Rp3697
(dp3698
bg20
(g492
g25
g3004
g1200
g3079
g2769
g100
tp3699
Rp3700
(dp3701
bg20
(g492
g25
g3004
g822
g3079
g2769
g100
tp3702
Rp3703
(dp3704
bg20
(g492
g163
g3004
g1200
g3079
g2769
g183
tp3705
Rp3706
(dp3707
bg20
(g492
g163
g3004
g822
g3079
g2769
g183
tp3708
Rp3709
(dp3710
bg20
(g3421
g205
g3004
g60
g3079
g2769
g150
tp3711
Rp3712
(dp3713
bg20
(g3421
g205
g3004
g171
g3079
g2769
g360
tp3714
Rp3715
(dp3716
bg20
(g3421
g3004
g3370
g3079
g2769
g150
g100
tp3717
Rp3718
(dp3719
bg20
(g3421
g3004
g3430
g3079
g2769
g360
g183
tp3720
Rp3721
(dp3722
bg20
(g3382
g205
g3004
g60
g3079
g2769
g306
tp3723
Rp3724
(dp3725
bg20
(g3382
g205
g3004
g171
g3079
g2769
g186
tp3726
Rp3727
(dp3728
bg20
(g3394
g2920
g454
g25
g3004
g2772
g2769
g103
tp3729
Rp3730
(dp3731
bg20
(g3394
g2920
g547
g163
g3004
g2772
g2769
g318
tp3732
Rp3733
(dp3734
bg20
(g137
g2920
g454
g205
g3004
g2772
g2769
g144
tp3735
Rp3736
(dp3737
bg20
(g137
g2920
g547
g205
g3004
g2772
g2769
g312
tp3738
Rp3739
(dp3740
bg20
(g3421
g25
g3004
g171
g3079
g2769
g360
g100
tp3741
Rp3742
(dp3743
bg20
(g3421
g163
g3004
g60
g3079
g2769
g150
g183
tp3744
Rp3745
(dp3746
bg20
(g3382
g25
g3004
g171
g3079
g2769
g186
g100
tp3747
Rp3748
(dp3749
bg20
(g3382
g163
g3004
g60
g3079
g2769
g306
g183
tp3750
Rp3751
(dp3752
bg20
(g828
g2920
g454
g25
g3004
g2772
g2769
g119
g2784
tp3753
Rp3754
(dp3755
bg20
(g828
g2920
g547
g163
g3004
g2772
g2769
g321
g2802
tp3756
Rp3757
(dp3758
bg20
(g192
g2920
g454
g205
g3004
g2772
g2769
g119
g100
tp3759
Rp3760
(dp3761
bg20
(g192
g2920
g547
g205
g3004
g2772
g2769
g321
g183
tp3762
Rp3763
(dp3764
bg20
(g137
g2920
g454
g25
g3004
g2772
g2769
g144
g100
tp3765
Rp3766
(dp3767
bg20
(g137
g2920
g454
g163
g3004
g2772
g2769
g144
g183
tp3768
Rp3769
(dp3770
bg20
(g137
g2920
g547
g25
g3004
g2772
g2769
g312
g100
tp3771
Rp3772
(dp3773
bg20
(g137
g2920
g547
g163
g3004
g2772
g2769
g312
g183
tp3774
Rp3775
(dp3776
bg20
(g62
(I2
I27
tp3777
Rp3778
(dp3779
bg25
g163
g205
g3004
g3079
g2769
g100
g183
tp3780
Rp3781
(dp3782
bg20
(g192
g2920
g454
g163
g3004
g2772
g2769
g119
g100
g183
tp3783
Rp3784
(dp3785
bg20
(g192
g2920
g547
g25
g3004
g2772
g2769
g321
g100
g183
tp3786
Rp3787
(dp3788
btp3789
Rp3790
(dp3791
bag19
(g20
(g116
g3004
g2769
g19
(g20
(g2996
g454
tp3792
Rp3793
(dp3794
bg20
(g3056
g2920
tp3795
Rp3796
(dp3797
btp3798
Rp3799
(dp3800
btp3801
Rp3802
(dp3803
bg20
(g2920
g454
g2769
g2989
tp3804
Rp3805
(dp3806
bg20
(g125
g68
g3004
g3076
g2769
tp3807
Rp3808
(dp3809
bg20
(g1476
g454
g3004
g2928
g2850
g2769
tp3810
Rp3811
(dp3812
bg20
(g125
g2920
g3004
g60
g2769
g90
tp3813
Rp3814
(dp3815
bg20
(g125
g454
g68
g3004
g822
g2769
tp3816
Rp3817
(dp3818
bg20
(g109
g454
g68
g3004
g213
g2769
tp3819
Rp3820
(dp3821
bg20
(g454
g68
g3004
g60
g2769
g2784
tp3822
Rp3823
(dp3824
bg20
(g454
g68
g3004
g171
g2769
g2802
tp3825
Rp3826
(dp3827
bg20
(g62
(I-2
I3
tp3828
Rp3829
(dp3830
bg2920
g25
g205
g3004
g2769
g103
tp3831
Rp3832
(dp3833
bg20
(g3829
g2920
g25
g163
g3004
g2769
g183
g103
tp3834
Rp3835
(dp3836
bg20
(g3019
g454
g25
g205
g68
g3004
g2769
g100
tp3837
Rp3838
(dp3839
bg20
(g3019
g454
g163
g205
g68
g3004
g2769
g183
tp3840
Rp3841
(dp3842
bg20
(g3019
g454
g25
g163
g68
g3004
g2769
g100
g183
tp3843
Rp3844
(dp3845
btp3846
Rp3847
(dp3848
bag19
(g20
(g125
g1200
g2772
g2769
g2989
tp3849
Rp3850
(dp3851
bg20
(g3829
g2920
g68
g3004
g1200
g2769
tp3852
Rp3853
(dp3854
bg20
(g828
g3056
g454
g3004
g2772
g2769
tp3855
Rp3856
(dp3857
bg20
(g137
g454
g3004
g213
g2772
g2769
g144
tp3858
Rp3859
(dp3860
bg20
(g64
g454
g3004
g60
g2772
g2769
g90
tp3861
Rp3862
(dp3863
bg20
(g62
(I-1
I9
tp3864
Rp3865
(dp3866
bg454
g25
g205
g3004
g2772
g2769
g103
tp3867
Rp3868
(dp3869
bg20
(g192
g454
g3004
g213
g2772
g2769
g119
g100
tp3870
Rp3871
(dp3872
bg20
(g109
g454
g25
g205
g3004
g2772
g2769
g131
tp3873
Rp3874
(dp3875
bg20
(g109
g454
g3004
g60
g2772
g2769
g131
g100
tp3876
Rp3877
(dp3878
bg20
(g137
g454
g3004
g171
g2772
g2769
g186
g144
tp3879
Rp3880
(dp3881
bg20
(g1488
g454
g3004
g60
g2772
g2769
g144
g2784
tp3882
Rp3883
(dp3884
bg20
(g828
g454
g25
g205
g3004
g2772
g2769
g119
g2784
tp3885
Rp3886
(dp3887
bg20
(g3865
g454
g25
g163
g3004
g2772
g2769
g183
g103
tp3888
Rp3889
(dp3890
bg20
(g192
g454
g3004
g171
g2772
g2769
g186
g119
g100
tp3891
Rp3892
(dp3893
bg20
(g109
g454
g25
g163
g3004
g2772
g2769
g131
g183
tp3894
Rp3895
(dp3896
bg20
(g3145
g454
g25
g205
g3004
g2772
g2769
g144
g100
tp3897
Rp3898
(dp3899
bg20
(g3154
g454
g163
g205
g3004
g2772
g2769
g144
g183
tp3900
Rp3901
(dp3902
bg20
(g3160
g454
g163
g205
g3004
g2772
g2769
g119
g100
g183
tp3903
Rp3904
(dp3905
bg20
(g828
g454
g25
g163
g3004
g2772
g2769
g119
g2784
g183
tp3906
Rp3907
(dp3908
bg20
(g3145
g454
g25
g163
g3004
g2772
g2769
g144
g100
g183
tp3909
Rp3910
(dp3911
btp3912
Rp3913
(dp3914
bag19
(g20
(g819
g3004
g2772
g2769
g19
(g20
(g3056
g547
tp3915
Rp3916
(dp3917
bg20
(g3179
g454
tp3918
Rp3919
(dp3920
btp3921
Rp3922
(dp3923
btp3924
Rp3925
(dp3926
bg20
(g125
g454
g547
g2772
g2769
g2989
tp3927
Rp3928
(dp3929
bg20
(g62
(I-2
I3
tp3930
Rp3931
(dp3932
bg2920
g454
g547
g68
g3004
g2769
tp3933
Rp3934
(dp3935
bg20
(g137
g454
g3004
g213
g2772
g2769
g312
tp3936
Rp3937
(dp3938
bg20
(g64
g547
g3004
g60
g2772
g2769
g90
tp3939
Rp3940
(dp3941
bg20
(g3865
g547
g25
g205
g3004
g2772
g2769
g103
tp3942
Rp3943
(dp3944
bg20
(g192
g454
g3004
g213
g2772
g2769
g321
g183
tp3945
Rp3946
(dp3947
bg20
(g109
g454
g163
g205
g3004
g2772
g2769
g351
tp3948
Rp3949
(dp3950
bg20
(g109
g454
g3004
g171
g2772
g2769
g351
g183
tp3951
Rp3952
(dp3953
bg20
(g137
g454
g3004
g60
g2772
g2769
g306
g312
tp3954
Rp3955
(dp3956
bg20
(g1488
g454
g3004
g171
g2772
g2769
g312
g2802
tp3957
Rp3958
(dp3959
bg20
(g828
g454
g163
g205
g3004
g2772
g2769
g321
g2802
tp3960
Rp3961
(dp3962
bg20
(g3865
g547
g25
g163
g3004
g2772
g2769
g183
g103
tp3963
Rp3964
(dp3965
bg20
(g192
g454
g3004
g60
g2772
g2769
g306
g321
g183
tp3966
Rp3967
(dp3968
bg20
(g109
g454
g25
g163
g3004
g2772
g2769
g351
g100
tp3969
Rp3970
(dp3971
bg20
(g3145
g454
g163
g205
g3004
g2772
g2769
g312
g183
tp3972
Rp3973
(dp3974
bg20
(g3154
g454
g25
g205
g3004
g2772
g2769
g312
g100
tp3975
Rp3976
(dp3977
bg20
(g3160
g454
g25
g205
g3004
g2772
g2769
g321
g100
g183
tp3978
Rp3979
(dp3980
bg20
(g828
g454
g25
g163
g3004
g2772
g2769
g321
g2802
g100
tp3981
Rp3982
(dp3983
bg20
(g3145
g454
g25
g163
g3004
g2772
g2769
g312
g100
g183
tp3984
Rp3985
(dp3986
btp3987
Rp3988
(dp3989
bag19
(g20
(g116
g3004
g2772
g2769
g2784
g19
(g20
(g3056
g25
tp3990
Rp3991
(dp3992
bg20
(g3278
g454
tp3993
Rp3994
(dp3995
btp3996
Rp3997
(dp3998
btp3999
Rp4000
(dp4001
bg20
(g96
g3004
g2772
g2769
g19
(g20
(g3056
g205
tp4002
Rp4003
(dp4004
bg20
(g3299
g454
tp4005
Rp4006
(dp4007
btp4008
Rp4009
(dp4010
bg100
tp4011
Rp4012
(dp4013
bg20
(g454
g25
g2772
g2769
g2989
g2784
tp4014
Rp4015
(dp4016
bg20
(g96
g3004
g2772
g2769
g19
(g20
(g3056
g163
tp4017
Rp4018
(dp4019
bg20
(g3338
g454
tp4020
Rp4021
(dp4022
btp4023
Rp4024
(dp4025
bg100
g183
tp4026
Rp4027
(dp4028
bg20
(g462
g25
g3004
g1200
g2772
g2769
g90
tp4029
Rp4030
(dp4031
bg20
(g3394
g205
g3004
g1200
g2772
g2769
g103
tp4032
Rp4033
(dp4034
bg20
(g125
g3004
g3370
g2772
g2769
g2784
g90
tp4035
Rp4036
(dp4037
bg20
(g109
g454
g205
g2772
g2769
g2989
g100
tp4038
Rp4039
(dp4040
bg20
(g109
g205
g3004
g1200
g2772
g2769
g510
tp4041
Rp4042
(dp4043
bg20
(g2931
g2920
g454
g25
g68
g3004
g2769
g2784
tp4044
Rp4045
(dp4046
bg20
(g62
(I-4
I9
tp4047
Rp4048
(dp4049
bg2920
g454
g205
g68
g3004
g2769
g100
tp4050
Rp4051
(dp4052
bg20
(g3829
g205
g3004
g60
g2772
g2769
g2784
g103
tp4053
Rp4054
(dp4055
bg20
(g3160
g25
g3004
g213
g2772
g2769
g100
g103
tp4056
Rp4057
(dp4058
bg20
(g96
g25
g3004
g1200
g2772
g2769
g100
g103
tp4059
Rp4060
(dp4061
bg20
(g483
g2920
g454
g25
g68
g3004
g2769
g150
tp4062
Rp4063
(dp4064
bg20
(g3394
g163
g3004
g1200
g2772
g2769
g183
g103
tp4065
Rp4066
(dp4067
bg20
(g109
g454
g163
g2772
g2769
g2989
g100
g183
tp4068
Rp4069
(dp4070
bg20
(g109
g25
g3004
g1200
g2772
g2769
g510
g100
tp4071
Rp4072
(dp4073
bg20
(g109
g163
g3004
g1200
g2772
g2769
g510
g183
tp4074
Rp4075
(dp4076
bg20
(g492
g205
g3004
g60
g2772
g2769
g100
g90
tp4077
Rp4078
(dp4079
bg20
(g1488
g25
g3004
g1200
g2772
g2769
g144
g2784
tp4080
Rp4081
(dp4082
bg20
(g237
g205
g3004
g1200
g2772
g2769
g144
g100
tp4083
Rp4084
(dp4085
bg20
(g4048
g2920
g454
g163
g68
g3004
g2769
g100
g183
tp4086
Rp4087
(dp4088
bg20
(g3829
g163
g3004
g60
g2772
g2769
g2784
g183
g103
tp4089
Rp4090
(dp4091
bg20
(g3160
g25
g3004
g171
g2772
g2769
g186
g100
g103
tp4092
Rp4093
(dp4094
bg20
(g3394
g454
g547
g163
g3004
g2772
g2769
g100
g318
tp4095
Rp4096
(dp4097
bg20
(g137
g454
g547
g25
g3004
g2772
g2769
g306
g312
tp4098
Rp4099
(dp4100
bg20
(g137
g454
g547
g205
g3004
g2772
g2769
g312
g100
tp4101
Rp4102
(dp4103
bg20
(g492
g163
g3004
g60
g2772
g2769
g100
g183
g90
tp4104
Rp4105
(dp4106
bg20
(g237
g163
g3004
g1200
g2772
g2769
g144
g100
g183
tp4107
Rp4108
(dp4109
bg20
(g62
(I-4
I27
tp4110
Rp4111
(dp4112
bg25
g163
g205
g3004
g2772
g2769
g100
g183
g103
tp4113
Rp4114
(dp4115
bg20
(g828
g454
g547
g163
g3004
g2772
g2769
g321
g2802
g100
tp4116
Rp4117
(dp4118
bg20
(g192
g454
g547
g25
g3004
g2772
g2769
g306
g321
g183
tp4119
Rp4120
(dp4121
bg20
(g192
g454
g547
g205
g3004
g2772
g2769
g321
g100
g183
tp4122
Rp4123
(dp4124
bg20
(g137
g454
g547
g163
g3004
g2772
g2769
g312
g100
g183
tp4125
Rp4126
(dp4127
btp4128
Rp4129
(dp4130
bag19
(g20
(g116
g3004
g2772
g2769
g2802
g4024
tp4131
Rp4132
(dp4133
bg20
(g96
g3004
g2772
g2769
g4009
g183
tp4134
Rp4135
(dp4136
bg20
(g454
g163
g2772
g2769
g2989
g2802
tp4137
Rp4138
(dp4139
bg20
(g96
g3004
g2772
g2769
g3997
g100
g183
tp4140
Rp4141
(dp4142
bg20
(g109
g454
g205
g2772
g2769
g2989
g183
tp4143
Rp4144
(dp4145
bg20
(g2931
g2920
g454
g163
g68
g3004
g2769
g2802
tp4146
Rp4147
(dp4148
bg20
(g4048
g2920
g454
g205
g68
g3004
g2769
g183
tp4149
Rp4150
(dp4151
bg20
(g3160
g25
g3004
g213
g2772
g2769
g183
g103
tp4152
Rp4153
(dp4154
bg20
(g483
g2920
g454
g163
g68
g3004
g2769
g360
tp4155
Rp4156
(dp4157
bg20
(g462
g454
g547
g163
g3004
g2772
g2769
g336
tp4158
Rp4159
(dp4160
bg20
(g3394
g454
g547
g205
g3004
g2772
g2769
g318
tp4161
Rp4162
(dp4163
bg20
(g3394
g25
g3004
g1200
g2772
g2769
g183
g103
tp4164
Rp4165
(dp4166
bg20
(g125
g163
g3004
g60
g2772
g2769
g2802
g90
tp4167
Rp4168
(dp4169
bg20
(g109
g454
g547
g205
g3004
g2772
g2769
g711
tp4170
Rp4171
(dp4172
bg20
(g109
g454
g25
g2772
g2769
g2989
g100
g183
tp4173
Rp4174
(dp4175
bg20
(g137
g163
g3004
g1200
g2772
g2769
g186
g144
tp4176
Rp4177
(dp4178
bg20
(g137
g205
g3004
g1200
g2772
g2769
g144
g183
tp4179
Rp4180
(dp4181
bg20
(g492
g205
g3004
g60
g2772
g2769
g183
g90
tp4182
Rp4183
(dp4184
bg20
(g492
g3004
g3370
g2772
g2769
g100
g183
g90
tp4185
Rp4186
(dp4187
bg20
(g4048
g2920
g454
g25
g68
g3004
g2769
g100
g183
tp4188
Rp4189
(dp4190
bg20
(g3829
g25
g163
g205
g3004
g2772
g2769
g2802
g103
tp4191
Rp4192
(dp4193
bg20
(g3829
g25
g3004
g171
g2772
g2769
g2802
g183
g103
tp4194
Rp4195
(dp4196
bg20
(g3160
g25
g163
g205
g3004
g2772
g2769
g186
g103
tp4197
Rp4198
(dp4199
bg20
(g3160
g163
g3004
g60
g2772
g2769
g186
g100
g103
tp4200
Rp4201
(dp4202
bg20
(g3160
g205
g3004
g60
g2772
g2769
g100
g183
g103
tp4203
Rp4204
(dp4205
bg20
(g828
g25
g3004
g1200
g2772
g2769
g119
g2784
g183
tp4206
Rp4207
(dp4208
bg20
(g96
g454
g547
g163
g3004
g2772
g2769
g183
g318
tp4209
Rp4210
(dp4211
bg20
(g192
g163
g3004
g1200
g2772
g2769
g186
g119
g100
tp4212
Rp4213
(dp4214
bg20
(g192
g205
g3004
g1200
g2772
g2769
g119
g100
g183
tp4215
Rp4216
(dp4217
bg20
(g3394
g454
g547
g25
g3004
g2772
g2769
g100
g318
tp4218
Rp4219
(dp4220
bg20
(g109
g454
g547
g25
g3004
g2772
g2769
g711
g100
tp4221
Rp4222
(dp4223
bg20
(g109
g454
g547
g163
g3004
g2772
g2769
g711
g183
tp4224
Rp4225
(dp4226
bg20
(g137
g25
g3004
g1200
g2772
g2769
g144
g100
g183
tp4227
Rp4228
(dp4229
bg20
(g1488
g454
g547
g163
g3004
g2772
g2769
g312
g2802
tp4230
Rp4231
(dp4232
bg20
(g237
g454
g547
g205
g3004
g2772
g2769
g312
g183
tp4233
Rp4234
(dp4235
bg20
(g237
g454
g547
g25
g3004
g2772
g2769
g312
g100
g183
tp4236
Rp4237
(dp4238
btp4239
Rp4240
(dp4241
bag19
(g20
(g96
g3004
g2772
g2769
g4009
tp4242
Rp4243
(dp4244
bg20
(g96
g3004
g2772
g2769
g3997
g100
tp4245
Rp4246
(dp4247
bg20
(g96
g3004
g2772
g2769
g4024
g183
tp4248
Rp4249
(dp4250
bg20
(g109
g454
g205
g2772
g2769
g2989
tp4251
Rp4252
(dp4253
bg20
(g4048
g2920
g454
g205
g68
g3004
g2769
tp4254
Rp4255
(dp4256
bg20
(g3160
g25
g3004
g213
g2772
g2769
g103
tp4257
Rp4258
(dp4259
bg20
(g3394
g25
g3004
g1200
g2772
g2769
g103
tp4260
Rp4261
(dp4262
bg20
(g109
g454
g25
g2772
g2769
g2989
g100
tp4263
Rp4264
(dp4265
bg20
(g109
g454
g163
g2772
g2769
g2989
g183
tp4266
Rp4267
(dp4268
bg20
(g137
g205
g3004
g1200
g2772
g2769
g144
tp4269
Rp4270
(dp4271
bg20
(g492
g205
g3004
g60
g2772
g2769
g90
tp4272
Rp4273
(dp4274
bg20
(g492
g3004
g3370
g2772
g2769
g100
g90
tp4275
Rp4276
(dp4277
bg20
(g4048
g2920
g454
g25
g68
g3004
g2769
g100
tp4278
Rp4279
(dp4280
bg20
(g4048
g2920
g454
g163
g68
g3004
g2769
g183
tp4281
Rp4282
(dp4283
bg20
(g3160
g25
g3004
g171
g2772
g2769
g186
g103
tp4284
Rp4285
(dp4286
bg20
(g3160
g205
g3004
g60
g2772
g2769
g100
g103
tp4287
Rp4288
(dp4289
bg20
(g828
g25
g3004
g1200
g2772
g2769
g119
g2784
tp4290
Rp4291
(dp4292
bg20
(g192
g205
g3004
g1200
g2772
g2769
g119
g100
tp4293
Rp4294
(dp4295
bg20
(g3394
g454
g547
g163
g3004
g2772
g2769
g318
tp4296
Rp4297
(dp4298
bg20
(g137
g454
g547
g205
g3004
g2772
g2769
g312
tp4299
Rp4300
(dp4301
bg20
(g137
g25
g3004
g1200
g2772
g2769
g144
g100
tp4302
Rp4303
(dp4304
bg20
(g137
g163
g3004
g1200
g2772
g2769
g144
g183
tp4305
Rp4306
(dp4307
bg20
(g492
g163
g3004
g60
g2772
g2769
g183
g90
tp4308
Rp4309
(dp4310
bg20
(g4111
g25
g163
g205
g3004
g2772
g2769
g183
g103
tp4311
Rp4312
(dp4313
bg20
(g3160
g163
g3004
g60
g2772
g2769
g100
g183
g103
tp4314
Rp4315
(dp4316
bg20
(g828
g454
g547
g163
g3004
g2772
g2769
g321
g2802
tp4317
Rp4318
(dp4319
bg20
(g192
g454
g547
g205
g3004
g2772
g2769
g321
g183
tp4320
Rp4321
(dp4322
bg20
(g192
g163
g3004
g1200
g2772
g2769
g119
g100
g183
tp4323
Rp4324
(dp4325
bg20
(g137
g454
g547
g25
g3004
g2772
g2769
g312
g100
tp4326
Rp4327
(dp4328
bg20
(g137
g454
g547
g163
g3004
g2772
g2769
g312
g183
tp4329
Rp4330
(dp4331
bg20
(g192
g454
g547
g25
g3004
g2772
g2769
g321
g100
g183
tp4332
Rp4333
(dp4334
btp4335
Rp4336
(dp4337
bag19
(g20
(g116
g3004
g2769
g19
(g20
(g2996
g547
tp4338
Rp4339
(dp4340
bg20
(g3179
g2920
tp4341
Rp4342
(dp4343
btp4344
Rp4345
(dp4346
btp4347
Rp4348
(dp4349
bg20
(g2920
g547
g2769
g2989
tp4350
Rp4351
(dp4352
bg20
(g125
g68
g3004
g3196
g2769
tp4353
Rp4354
(dp4355
bg20
(g1476
g547
g3004
g2928
g2850
g2769
tp4356
Rp4357
(dp4358
bg20
(g125
g2920
g3004
g171
g2769
g336
tp4359
Rp4360
(dp4361
bg20
(g125
g547
g68
g3004
g1200
g2769
tp4362
Rp4363
(dp4364
bg20
(g109
g547
g68
g3004
g213
g2769
tp4365
Rp4366
(dp4367
bg20
(g547
g68
g3004
g60
g2769
g2784
tp4368
Rp4369
(dp4370
bg20
(g547
g68
g3004
g171
g2769
g2802
tp4371
Rp4372
(dp4373
bg20
(g3829
g2920
g163
g205
g3004
g2769
g318
tp4374
Rp4375
(dp4376
bg20
(g3829
g2920
g25
g163
g3004
g2769
g100
g318
tp4377
Rp4378
(dp4379
bg20
(g3019
g547
g25
g205
g68
g3004
g2769
g100
tp4380
Rp4381
(dp4382
bg20
(g3019
g547
g163
g205
g68
g3004
g2769
g183
tp4383
Rp4384
(dp4385
bg20
(g3019
g547
g25
g163
g68
g3004
g2769
g100
g183
tp4386
Rp4387
(dp4388
btp4389
Rp4390
(dp4391
bag19
(g20
(g819
g3004
g2772
g2769
g3922
tp4392
Rp4393
(dp4394
bg20
(g125
g454
g547
g2772
g2769
g2989
tp4395
Rp4396
(dp4397
bg20
(g3829
g2920
g454
g547
g68
g3004
g2769
tp4398
Rp4399
(dp4400
bg20
(g137
g547
g3004
g213
g2772
g2769
g144
tp4401
Rp4402
(dp4403
bg20
(g64
g454
g3004
g171
g2772
g2769
g336
tp4404
Rp4405
(dp4406
bg20
(g3865
g454
g163
g205
g3004
g2772
g2769
g318
tp4407
Rp4408
(dp4409
bg20
(g192
g547
g3004
g213
g2772
g2769
g119
g100
tp4410
Rp4411
(dp4412
bg20
(g109
g547
g25
g205
g3004
g2772
g2769
g131
tp4413
Rp4414
(dp4415
bg20
(g109
g547
g3004
g60
g2772
g2769
g131
g100
tp4416
Rp4417
(dp4418
bg20
(g137
g547
g3004
g171
g2772
g2769
g186
g144
tp4419
Rp4420
(dp4421
bg20
(g1488
g547
g3004
g60
g2772
g2769
g144
g2784
tp4422
Rp4423
(dp4424
bg20
(g828
g547
g25
g205
g3004
g2772
g2769
g119
g2784
tp4425
Rp4426
(dp4427
bg20
(g3865
g454
g25
g163
g3004
g2772
g2769
g100
g318
tp4428
Rp4429
(dp4430
bg20
(g192
g547
g3004
g171
g2772
g2769
g186
g119
g100
tp4431
Rp4432
(dp4433
bg20
(g109
g547
g25
g163
g3004
g2772
g2769
g131
g183
tp4434
Rp4435
(dp4436
bg20
(g3145
g547
g25
g205
g3004
g2772
g2769
g144
g100
tp4437
Rp4438
(dp4439
bg20
(g3154
g547
g163
g205
g3004
g2772
g2769
g144
g183
tp4440
Rp4441
(dp4442
bg20
(g3160
g547
g163
g205
g3004
g2772
g2769
g119
g100
g183
tp4443
Rp4444
(dp4445
bg20
(g828
g547
g25
g163
g3004
g2772
g2769
g119
g2784
g183
tp4446
Rp4447
(dp4448
bg20
(g3145
g547
g25
g163
g3004
g2772
g2769
g144
g100
g183
tp4449
Rp4450
(dp4451
btp4452
Rp4453
(dp4454
bag19
(g20
(g125
g822
g2772
g2769
g2989
tp4455
Rp4456
(dp4457
bg20
(g3829
g2920
g68
g3004
g822
g2769
tp4458
Rp4459
(dp4460
bg20
(g828
g3179
g547
g3004
g2772
g2769
tp4461
Rp4462
(dp4463
bg20
(g137
g547
g3004
g213
g2772
g2769
g312
tp4464
Rp4465
(dp4466
bg20
(g64
g547
g3004
g171
g2772
g2769
g336
tp4467
Rp4468
(dp4469
bg20
(g3865
g547
g163
g205
g3004
g2772
g2769
g318
tp4470
Rp4471
(dp4472
bg20
(g192
g547
g3004
g213
g2772
g2769
g321
g183
tp4473
Rp4474
(dp4475
bg20
(g109
g547
g163
g205
g3004
g2772
g2769
g351
tp4476
Rp4477
(dp4478
bg20
(g109
g547
g3004
g171
g2772
g2769
g351
g183
tp4479
Rp4480
(dp4481
bg20
(g137
g547
g3004
g60
g2772
g2769
g306
g312
tp4482
Rp4483
(dp4484
bg20
(g1488
g547
g3004
g171
g2772
g2769
g312
g2802
tp4485
Rp4486
(dp4487
bg20
(g828
g547
g163
g205
g3004
g2772
g2769
g321
g2802
tp4488
Rp4489
(dp4490
bg20
(g3865
g547
g25
g163
g3004
g2772
g2769
g100
g318
tp4491
Rp4492
(dp4493
bg20
(g192
g547
g3004
g60
g2772
g2769
g306
g321
g183
tp4494
Rp4495
(dp4496
bg20
(g109
g547
g25
g163
g3004
g2772
g2769
g351
g100
tp4497
Rp4498
(dp4499
bg20
(g3145
g547
g163
g205
g3004
g2772
g2769
g312
g183
tp4500
Rp4501
(dp4502
bg20
(g3154
g547
g25
g205
g3004
g2772
g2769
g312
g100
tp4503
Rp4504
(dp4505
bg20
(g3160
g547
g25
g205
g3004
g2772
g2769
g321
g100
g183
tp4506
Rp4507
(dp4508
bg20
(g828
g547
g25
g163
g3004
g2772
g2769
g321
g2802
g100
tp4509
Rp4510
(dp4511
bg20
(g3145
g547
g25
g163
g3004
g2772
g2769
g312
g100
g183
tp4512
Rp4513
(dp4514
btp4515
Rp4516
(dp4517
bag19
(g20
(g116
g3004
g2772
g2769
g2784
g19
(g20
(g3179
g25
tp4518
Rp4519
(dp4520
bg20
(g3278
g547
tp4521
Rp4522
(dp4523
btp4524
Rp4525
(dp4526
btp4527
Rp4528
(dp4529
bg20
(g96
g3004
g2772
g2769
g19
(g20
(g3179
g205
tp4530
Rp4531
(dp4532
bg20
(g3299
g547
tp4533
Rp4534
(dp4535
btp4536
Rp4537
(dp4538
bg100
tp4539
Rp4540
(dp4541
bg20
(g547
g25
g2772
g2769
g2989
g2784
tp4542
Rp4543
(dp4544
bg20
(g96
g3004
g2772
g2769
g19
(g20
(g3179
g163
tp4545
Rp4546
(dp4547
bg20
(g3338
g547
tp4548
Rp4549
(dp4550
btp4551
Rp4552
(dp4553
bg100
g183
tp4554
Rp4555
(dp4556
bg20
(g109
g547
g205
g2772
g2769
g2989
g100
tp4557
Rp4558
(dp4559
bg20
(g2931
g2920
g547
g25
g68
g3004
g2769
g2784
tp4560
Rp4561
(dp4562
bg20
(g4048
g2920
g547
g205
g68
g3004
g2769
g100
tp4563
Rp4564
(dp4565
bg20
(g3160
g163
g3004
g213
g2772
g2769
g100
g318
tp4566
Rp4567
(dp4568
bg20
(g483
g2920
g547
g25
g68
g3004
g2769
g150
tp4569
Rp4570
(dp4571
bg20
(g462
g454
g547
g25
g3004
g2772
g2769
g90
tp4572
Rp4573
(dp4574
bg20
(g3394
g454
g547
g205
g3004
g2772
g2769
g103
tp4575
Rp4576
(dp4577
bg20
(g125
g25
g3004
g171
g2772
g2769
g2784
g336
tp4578
Rp4579
(dp4580
bg20
(g3394
g163
g3004
g822
g2772
g2769
g100
g318
tp4581
Rp4582
(dp4583
bg20
(g109
g454
g547
g205
g3004
g2772
g2769
g510
tp4584
Rp4585
(dp4586
bg20
(g109
g547
g163
g2772
g2769
g2989
g100
g183
tp4587
Rp4588
(dp4589
bg20
(g137
g25
g3004
g822
g2772
g2769
g306
g312
tp4590
Rp4591
(dp4592
bg20
(g137
g205
g3004
g822
g2772
g2769
g312
g100
tp4593
Rp4594
(dp4595
bg20
(g492
g205
g3004
g171
g2772
g2769
g100
g336
tp4596
Rp4597
(dp4598
bg20
(g492
g3004
g3430
g2772
g2769
g100
g183
g336
tp4599
Rp4600
(dp4601
bg20
(g4048
g2920
g547
g163
g68
g3004
g2769
g100
g183
tp4602
Rp4603
(dp4604
bg20
(g3829
g25
g163
g205
g3004
g2772
g2769
g2784
g318
tp4605
Rp4606
(dp4607
bg20
(g3829
g163
g3004
g60
g2772
g2769
g2784
g100
g318
tp4608
Rp4609
(dp4610
bg20
(g3160
g25
g163
g205
g3004
g2772
g2769
g306
g318
tp4611
Rp4612
(dp4613
bg20
(g3160
g25
g3004
g171
g2772
g2769
g306
g183
g318
tp4614
Rp4615
(dp4616
bg20
(g3160
g205
g3004
g171
g2772
g2769
g100
g183
g318
tp4617
Rp4618
(dp4619
bg20
(g828
g163
g3004
g822
g2772
g2769
g321
g2802
g100
tp4620
Rp4621
(dp4622
bg20
(g96
g454
g547
g25
g3004
g2772
g2769
g100
g103
tp4623
Rp4624
(dp4625
bg20
(g192
g25
g3004
g822
g2772
g2769
g306
g321
g183
tp4626
Rp4627
(dp4628
bg20
(g192
g205
g3004
g822
g2772
g2769
g321
g100
g183
tp4629
Rp4630
(dp4631
bg20
(g3394
g454
g547
g163
g3004
g2772
g2769
g183
g103
tp4632
Rp4633
(dp4634
bg20
(g109
g454
g547
g25
g3004
g2772
g2769
g510
g100
tp4635
Rp4636
(dp4637
bg20
(g109
g454
g547
g163
g3004
g2772
g2769
g510
g183
tp4638
Rp4639
(dp4640
bg20
(g137
g163
g3004
g822
g2772
g2769
g312
g100
g183
tp4641
Rp4642
(dp4643
bg20
(g1488
g454
g547
g25
g3004
g2772
g2769
g144
g2784
tp4644
Rp4645
(dp4646
bg20
(g237
g454
g547
g205
g3004
g2772
g2769
g144
g100
tp4647
Rp4648
(dp4649
bg20
(g237
g454
g547
g163
g3004
g2772
g2769
g144
g100
g183
tp4650
Rp4651
(dp4652
btp4653
Rp4654
(dp4655
bag19
(g20
(g116
g3004
g2772
g2769
g2802
g4552
tp4656
Rp4657
(dp4658
bg20
(g96
g3004
g2772
g2769
g4537
g183
tp4659
Rp4660
(dp4661
bg20
(g547
g163
g2772
g2769
g2989
g2802
tp4662
Rp4663
(dp4664
bg20
(g96
g3004
g2772
g2769
g4525
g100
g183
tp4665
Rp4666
(dp4667
bg20
(g462
g163
g3004
g822
g2772
g2769
g336
tp4668
Rp4669
(dp4670
bg20
(g3394
g205
g3004
g822
g2772
g2769
g318
tp4671
Rp4672
(dp4673
bg20
(g125
g3004
g3430
g2772
g2769
g2802
g336
tp4674
Rp4675
(dp4676
bg20
(g109
g547
g205
g2772
g2769
g2989
g183
tp4677
Rp4678
(dp4679
bg20
(g109
g205
g3004
g822
g2772
g2769
g711
tp4680
Rp4681
(dp4682
bg20
(g2931
g2920
g547
g163
g68
g3004
g2769
g2802
tp4683
Rp4684
(dp4685
bg20
(g4048
g2920
g547
g205
g68
g3004
g2769
g183
tp4686
Rp4687
(dp4688
bg20
(g3829
g205
g3004
g171
g2772
g2769
g2802
g318
tp4689
Rp4690
(dp4691
bg20
(g3160
g163
g3004
g213
g2772
g2769
g183
g318
tp4692
Rp4693
(dp4694
bg20
(g96
g163
g3004
g822
g2772
g2769
g183
g318
tp4695
Rp4696
(dp4697
bg20
(g483
g2920
g547
g163
g68
g3004
g2769
g360
tp4698
Rp4699
(dp4700
bg20
(g3394
g25
g3004
g822
g2772
g2769
g100
g318
tp4701
Rp4702
(dp4703
bg20
(g109
g547
g25
g2772
g2769
g2989
g100
g183
tp4704
Rp4705
(dp4706
bg20
(g109
g25
g3004
g822
g2772
g2769
g711
g100
tp4707
Rp4708
(dp4709
bg20
(g109
g163
g3004
g822
g2772
g2769
g711
g183
tp4710
Rp4711
(dp4712
bg20
(g492
g205
g3004
g171
g2772
g2769
g183
g336
tp4713
Rp4714
(dp4715
bg20
(g1488
g163
g3004
g822
g2772
g2769
g312
g2802
tp4716
Rp4717
(dp4718
bg20
(g237
g205
g3004
g822
g2772
g2769
g312
g183
tp4719
Rp4720
(dp4721
bg20
(g4048
g2920
g547
g25
g68
g3004
g2769
g100
g183
tp4722
Rp4723
(dp4724
bg20
(g3829
g25
g3004
g171
g2772
g2769
g2802
g100
g318
tp4725
Rp4726
(dp4727
bg20
(g3160
g163
g3004
g60
g2772
g2769
g306
g183
g318
tp4728
Rp4729
(dp4730
bg20
(g3394
g454
g547
g25
g3004
g2772
g2769
g183
g103
tp4731
Rp4732
(dp4733
bg20
(g137
g454
g547
g163
g3004
g2772
g2769
g186
g144
tp4734
Rp4735
(dp4736
bg20
(g137
g454
g547
g205
g3004
g2772
g2769
g144
g183
tp4737
Rp4738
(dp4739
bg20
(g492
g25
g3004
g171
g2772
g2769
g100
g183
g336
tp4740
Rp4741
(dp4742
bg20
(g237
g25
g3004
g822
g2772
g2769
g312
g100
g183
tp4743
Rp4744
(dp4745
bg20
(g4111
g25
g163
g205
g3004
g2772
g2769
g100
g183
g318
tp4746
Rp4747
(dp4748
bg20
(g828
g454
g547
g25
g3004
g2772
g2769
g119
g2784
g183
tp4749
Rp4750
(dp4751
bg20
(g192
g454
g547
g163
g3004
g2772
g2769
g186
g119
g100
tp4752
Rp4753
(dp4754
bg20
(g192
g454
g547
g205
g3004
g2772
g2769
g119
g100
g183
tp4755
Rp4756
(dp4757
bg20
(g137
g454
g547
g25
g3004
g2772
g2769
g144
g100
g183
tp4758
Rp4759
(dp4760
btp4761
Rp4762
(dp4763
bag19
(g20
(g96
g3004
g2772
g2769
g4537
tp4764
Rp4765
(dp4766
bg20
(g96
g3004
g2772
g2769
g4525
g100
tp4767
Rp4768
(dp4769
bg20
(g96
g3004
g2772
g2769
g4552
g183
tp4770
Rp4771
(dp4772
bg20
(g109
g547
g205
g2772
g2769
g2989
tp4773
Rp4774
(dp4775
bg20
(g4048
g2920
g547
g205
g68
g3004
g2769
tp4776
Rp4777
(dp4778
bg20
(g3160
g163
g3004
g213
g2772
g2769
g318
tp4779
Rp4780
(dp4781
bg20
(g3394
g163
g3004
g822
g2772
g2769
g318
tp4782
Rp4783
(dp4784
bg20
(g109
g547
g25
g2772
g2769
g2989
g100
tp4785
Rp4786
(dp4787
bg20
(g109
g547
g163
g2772
g2769
g2989
g183
tp4788
Rp4789
(dp4790
bg20
(g137
g205
g3004
g822
g2772
g2769
g312
tp4791
Rp4792
(dp4793
bg20
(g492
g205
g3004
g171
g2772
g2769
g336
tp4794
Rp4795
(dp4796
bg20
(g492
g3004
g3430
g2772
g2769
g183
g336
tp4797
Rp4798
(dp4799
bg20
(g4048
g2920
g547
g25
g68
g3004
g2769
g100
tp4800
Rp4801
(dp4802
bg20
(g4048
g2920
g547
g163
g68
g3004
g2769
g183
tp4803
Rp4804
(dp4805
bg20
(g3160
g163
g3004
g60
g2772
g2769
g306
g318
tp4806
Rp4807
(dp4808
bg20
(g3160
g205
g3004
g171
g2772
g2769
g183
g318
tp4809
Rp4810
(dp4811
bg20
(g828
g163
g3004
g822
g2772
g2769
g321
g2802
tp4812
Rp4813
(dp4814
bg20
(g192
g205
g3004
g822
g2772
g2769
g321
g183
tp4815
Rp4816
(dp4817
bg20
(g3394
g454
g547
g25
g3004
g2772
g2769
g103
tp4818
Rp4819
(dp4820
bg20
(g137
g454
g547
g205
g3004
g2772
g2769
g144
tp4821
Rp4822
(dp4823
bg20
(g137
g25
g3004
g822
g2772
g2769
g312
g100
tp4824
Rp4825
(dp4826
bg20
(g137
g163
g3004
g822
g2772
g2769
g312
g183
tp4827
Rp4828
(dp4829
bg20
(g492
g25
g3004
g171
g2772
g2769
g100
g336
tp4830
Rp4831
(dp4832
bg20
(g4111
g25
g163
g205
g3004
g2772
g2769
g100
g318
tp4833
Rp4834
(dp4835
bg20
(g3160
g25
g3004
g171
g2772
g2769
g100
g183
g318
tp4836
Rp4837
(dp4838
bg20
(g828
g454
g547
g25
g3004
g2772
g2769
g119
g2784
tp4839
Rp4840
(dp4841
bg20
(g192
g454
g547
g205
g3004
g2772
g2769
g119
g100
tp4842
Rp4843
(dp4844
bg20
(g192
g25
g3004
g822
g2772
g2769
g321
g100
g183
tp4845
Rp4846
(dp4847
bg20
(g137
g454
g547
g25
g3004
g2772
g2769
g144
g100
tp4848
Rp4849
(dp4850
bg20
(g137
g454
g547
g163
g3004
g2772
g2769
g144
g183
tp4851
Rp4852
(dp4853
bg20
(g192
g454
g547
g163
g3004
g2772
g2769
g119
g100
g183
tp4854
Rp4855
(dp4856
btp4857
Rp4858
(dp4859
bag19
(g20
(g116
g3004
g2769
g19
(g20
(g2996
g25
tp4860
Rp4861
(dp4862
bg20
(g3278
g2920
tp4863
Rp4864
(dp4865
btp4866
Rp4867
(dp4868
btp4869
Rp4870
(dp4871
bg20
(g2920
g25
g2769
g2989
tp4872
Rp4873
(dp4874
bg20
(g68
g3004
g3370
g2769
g2784
tp4875
Rp4876
(dp4877
bg20
(g1476
g25
g3004
g2928
g2850
g2769
tp4878
Rp4879
(dp4880
bg20
(g125
g25
g68
g3004
g1200
g2769
tp4881
Rp4882
(dp4883
bg20
(g125
g25
g68
g3004
g822
g2769
tp4884
Rp4885
(dp4886
bg20
(g109
g25
g68
g3004
g213
g2769
tp4887
Rp4888
(dp4889
bg20
(g25
g68
g3004
g171
g2769
g2802
tp4890
Rp4891
(dp4892
bg20
(g62
(I-4
I3
tp4893
Rp4894
(dp4895
bg2920
g454
g25
g3004
g2769
g144
tp4896
Rp4897
(dp4898
bg20
(g62
(I2
I3
tp4899
Rp4900
(dp4901
bg2920
g454
g205
g3004
g2769
g119
tp4902
Rp4903
(dp4904
bg20
(g3019
g205
g68
g3004
g60
g2769
g100
tp4905
Rp4906
(dp4907
bg20
(g4900
g2920
g454
g163
g3004
g2769
g119
g183
tp4908
Rp4909
(dp4910
bg20
(g3019
g25
g163
g205
g68
g3004
g2769
g183
tp4911
Rp4912
(dp4913
bg20
(g3019
g163
g68
g3004
g60
g2769
g100
g183
tp4914
Rp4915
(dp4916
btp4917
Rp4918
(dp4919
bag19
(g20
(g819
g3004
g2772
g2769
g19
(g20
(g3056
g25
tp4920
Rp4921
(dp4922
bg20
(g3278
g454
tp4923
Rp4924
(dp4925
btp4926
Rp4927
(dp4928
btp4929
Rp4930
(dp4931
bg20
(g125
g454
g25
g2772
g2769
g2989
tp4932
Rp4933
(dp4934
bg20
(g62
(I-2
I3
tp4935
Rp4936
(dp4937
bg2920
g454
g25
g68
g3004
g2769
tp4938
Rp4939
(dp4940
bg20
(g62
(I-2
I9
tp4941
Rp4942
(dp4943
bg25
g3004
g1200
g2772
g2769
g144
tp4944
Rp4945
(dp4946
bg20
(g62
(I1
I9
tp4947
Rp4948
(dp4949
bg205
g3004
g1200
g2772
g2769
g119
tp4950
Rp4951
(dp4952
bg20
(g109
g205
g3004
g60
g2772
g2769
g131
tp4953
Rp4954
(dp4955
bg20
(g109
g3004
g3370
g2772
g2769
g131
g100
tp4956
Rp4957
(dp4958
bg20
(g137
g25
g3004
g213
g2772
g2769
g144
tp4959
Rp4960
(dp4961
bg20
(g1488
g3004
g3370
g2772
g2769
g144
g2784
tp4962
Rp4963
(dp4964
bg20
(g828
g205
g3004
g60
g2772
g2769
g119
g2784
tp4965
Rp4966
(dp4967
bg20
(g192
g25
g3004
g213
g2772
g2769
g119
g100
tp4968
Rp4969
(dp4970
bg20
(g4948
g163
g3004
g1200
g2772
g2769
g119
g183
tp4971
Rp4972
(dp4973
bg20
(g109
g163
g3004
g60
g2772
g2769
g131
g183
tp4974
Rp4975
(dp4976
bg20
(g3145
g205
g3004
g60
g2772
g2769
g144
g100
tp4977
Rp4978
(dp4979
bg20
(g137
g25
g3004
g171
g2772
g2769
g186
g144
tp4980
Rp4981
(dp4982
bg20
(g828
g163
g3004
g60
g2772
g2769
g119
g2784
g183
tp4983
Rp4984
(dp4985
bg20
(g192
g25
g3004
g171
g2772
g2769
g186
g119
g100
tp4986
Rp4987
(dp4988
bg20
(g3145
g163
g3004
g60
g2772
g2769
g144
g100
g183
tp4989
Rp4990
(dp4991
bg20
(g3154
g25
g163
g205
g3004
g2772
g2769
g144
g183
tp4992
Rp4993
(dp4994
bg20
(g3160
g25
g163
g205
g3004
g2772
g2769
g119
g100
g183
tp4995
Rp4996
(dp4997
btp4998
Rp4999
(dp5000
bag19
(g20
(g819
g3004
g2772
g2769
g19
(g20
(g3179
g25
tp5001
Rp5002
(dp5003
bg20
(g3278
g547
tp5004
Rp5005
(dp5006
btp5007
Rp5008
(dp5009
btp5010
Rp5011
(dp5012
bg20
(g125
g547
g25
g2772
g2769
g2989
tp5013
Rp5014
(dp5015
bg20
(g3829
g2920
g547
g25
g68
g3004
g2769
tp5016
Rp5017
(dp5018
bg20
(g137
g25
g3004
g213
g2772
g2769
g312
tp5019
Rp5020
(dp5021
bg20
(g137
g3004
g3370
g2772
g2769
g306
g312
tp5022
Rp5023
(dp5024
bg20
(g4942
g454
g547
g25
g3004
g2772
g2769
g144
tp5025
Rp5026
(dp5027
bg20
(g192
g25
g3004
g213
g2772
g2769
g321
g183
tp5028
Rp5029
(dp5030
bg20
(g192
g3004
g3370
g2772
g2769
g306
g321
g183
tp5031
Rp5032
(dp5033
bg20
(g4948
g454
g547
g205
g3004
g2772
g2769
g119
tp5034
Rp5035
(dp5036
bg20
(g109
g25
g163
g205
g3004
g2772
g2769
g351
tp5037
Rp5038
(dp5039
bg20
(g109
g25
g3004
g171
g2772
g2769
g351
g183
tp5040
Rp5041
(dp5042
bg20
(g109
g163
g3004
g60
g2772
g2769
g351
g100
tp5043
Rp5044
(dp5045
bg20
(g1488
g25
g3004
g171
g2772
g2769
g312
g2802
tp5046
Rp5047
(dp5048
bg20
(g3154
g205
g3004
g60
g2772
g2769
g312
g100
tp5049
Rp5050
(dp5051
bg20
(g3160
g205
g3004
g60
g2772
g2769
g321
g100
g183
tp5052
Rp5053
(dp5054
bg20
(g828
g25
g163
g205
g3004
g2772
g2769
g321
g2802
tp5055
Rp5056
(dp5057
bg20
(g828
g163
g3004
g60
g2772
g2769
g321
g2802
g100
tp5058
Rp5059
(dp5060
bg20
(g4948
g454
g547
g163
g3004
g2772
g2769
g119
g183
tp5061
Rp5062
(dp5063
bg20
(g3145
g25
g163
g205
g3004
g2772
g2769
g312
g183
tp5064
Rp5065
(dp5066
bg20
(g3145
g163
g3004
g60
g2772
g2769
g312
g100
g183
tp5067
Rp5068
(dp5069
btp5070
Rp5071
(dp5072
bag19
(g20
(g60
g2772
g2769
g2989
g2784
tp5073
Rp5074
(dp5075
bg20
(g96
g3004
g2772
g2769
g19
(g20
(g3278
g205
tp5076
Rp5077
(dp5078
bg20
(g3299
g25
tp5079
Rp5080
(dp5081
btp5082
Rp5083
(dp5084
bg100
tp5085
Rp5086
(dp5087
bg20
(g2931
g2920
g68
g3004
g60
g2769
g2784
tp5088
Rp5089
(dp5090
bg20
(g1476
g3278
g25
g3004
g2772
g2769
g2784
tp5091
Rp5092
(dp5093
bg20
(g96
g3004
g2772
g2769
g19
(g20
(g3278
g163
tp5094
Rp5095
(dp5096
bg20
(g3338
g25
tp5097
Rp5098
(dp5099
btp5100
Rp5101
(dp5102
bg100
g183
tp5103
Rp5104
(dp5105
bg20
(g483
g2920
g68
g3004
g60
g2769
g150
tp5106
Rp5107
(dp5108
bg20
(g462
g454
g3004
g60
g2772
g2769
g90
tp5109
Rp5110
(dp5111
bg20
(g109
g25
g205
g2772
g2769
g2989
g100
tp5112
Rp5113
(dp5114
bg20
(g4048
g2920
g25
g205
g68
g3004
g2769
g100
tp5115
Rp5116
(dp5117
bg20
(g1641
g454
g3004
g60
g2772
g2769
g144
g2784
tp5118
Rp5119
(dp5120
bg20
(g96
g454
g3004
g60
g2772
g2769
g100
g103
tp5121
Rp5122
(dp5123
bg20
(g3394
g454
g25
g205
g3004
g2772
g2769
g103
tp5124
Rp5125
(dp5126
bg20
(g109
g454
g25
g205
g3004
g2772
g2769
g131
tp5127
Rp5128
(dp5129
bg20
(g109
g454
g3004
g60
g2772
g2769
g131
g100
tp5130
Rp5131
(dp5132
bg20
(g109
g25
g163
g2772
g2769
g2989
g100
g183
tp5133
Rp5134
(dp5135
bg20
(g137
g547
g3004
g60
g2772
g2769
g306
g312
tp5136
Rp5137
(dp5138
bg20
(g3154
g454
g3004
g213
g2772
g2769
g119
g100
tp5139
Rp5140
(dp5141
bg20
(g4048
g2920
g25
g163
g68
g3004
g2769
g100
g183
tp5142
Rp5143
(dp5144
bg20
(g573
g454
g25
g205
g3004
g2772
g2769
g144
g100
tp5145
Rp5146
(dp5147
bg20
(g192
g547
g3004
g60
g2772
g2769
g306
g321
g183
tp5148
Rp5149
(dp5150
bg20
(g3394
g454
g25
g163
g3004
g2772
g2769
g183
g103
tp5151
Rp5152
(dp5153
bg20
(g3394
g547
g25
g163
g3004
g2772
g2769
g100
g318
tp5154
Rp5155
(dp5156
bg20
(g109
g454
g25
g163
g3004
g2772
g2769
g131
g183
tp5157
Rp5158
(dp5159
bg20
(g137
g547
g25
g205
g3004
g2772
g2769
g312
g100
tp5160
Rp5161
(dp5162
bg20
(g4900
g454
g25
g205
g3004
g2772
g2769
g119
g2784
tp5163
Rp5164
(dp5165
bg20
(g3154
g454
g3004
g171
g2772
g2769
g186
g119
g100
tp5166
Rp5167
(dp5168
bg20
(g573
g454
g25
g163
g3004
g2772
g2769
g144
g100
g183
tp5169
Rp5170
(dp5171
bg20
(g828
g547
g25
g163
g3004
g2772
g2769
g321
g2802
g100
tp5172
Rp5173
(dp5174
bg20
(g192
g547
g25
g205
g3004
g2772
g2769
g321
g100
g183
tp5175
Rp5176
(dp5177
bg20
(g137
g547
g25
g163
g3004
g2772
g2769
g312
g100
g183
tp5178
Rp5179
(dp5180
bg20
(g4900
g454
g25
g163
g3004
g2772
g2769
g119
g2784
g183
tp5181
Rp5182
(dp5183
bg20
(g62
(I4
I27
tp5184
Rp5185
(dp5186
bg454
g163
g205
g3004
g2772
g2769
g119
g100
g183
tp5187
Rp5188
(dp5189
btp5190
Rp5191
(dp5192
bag19
(g20
(g116
g3004
g2772
g2769
g2802
g5101
tp5193
Rp5194
(dp5195
bg20
(g96
g3004
g2772
g2769
g5083
g183
tp5196
Rp5197
(dp5198
bg20
(g25
g163
g2772
g2769
g2989
g2802
tp5199
Rp5200
(dp5201
bg20
(g109
g25
g205
g2772
g2769
g2989
g183
tp5202
Rp5203
(dp5204
bg20
(g109
g60
g2772
g2769
g2989
g100
g183
tp5205
Rp5206
(dp5207
bg20
(g2931
g2920
g25
g163
g68
g3004
g2769
g2802
tp5208
Rp5209
(dp5210
bg20
(g4048
g2920
g25
g205
g68
g3004
g2769
g183
tp5211
Rp5212
(dp5213
bg20
(g4048
g2920
g68
g3004
g60
g2769
g100
g183
tp5214
Rp5215
(dp5216
bg20
(g873
g3278
g25
g3004
g2772
g2769
g100
g183
tp5217
Rp5218
(dp5219
bg20
(g483
g2920
g25
g163
g68
g3004
g2769
g360
tp5220
Rp5221
(dp5222
bg20
(g462
g547
g25
g163
g3004
g2772
g2769
g336
tp5223
Rp5224
(dp5225
bg20
(g3394
g454
g3004
g60
g2772
g2769
g183
g103
tp5226
Rp5227
(dp5228
bg20
(g3394
g547
g25
g205
g3004
g2772
g2769
g318
tp5229
Rp5230
(dp5231
bg20
(g3394
g547
g3004
g60
g2772
g2769
g100
g318
tp5232
Rp5233
(dp5234
bg20
(g109
g547
g25
g205
g3004
g2772
g2769
g711
tp5235
Rp5236
(dp5237
bg20
(g109
g547
g3004
g60
g2772
g2769
g711
g100
tp5238
Rp5239
(dp5240
bg20
(g3154
g454
g3004
g213
g2772
g2769
g119
g183
tp5241
Rp5242
(dp5243
bg20
(g4894
g454
g25
g163
g3004
g2772
g2769
g144
g2802
tp5244
Rp5245
(dp5246
bg20
(g828
g454
g3004
g60
g2772
g2769
g119
g2784
g183
tp5247
Rp5248
(dp5249
bg20
(g62
(I-1
I9
tp5250
Rp5251
(dp5252
bg454
g25
g205
g3004
g2772
g2769
g144
g183
tp5253
Rp5254
(dp5255
bg20
(g5251
g454
g3004
g60
g2772
g2769
g144
g100
g183
tp5256
Rp5257
(dp5258
bg20
(g96
g547
g25
g163
g3004
g2772
g2769
g183
g318
tp5259
Rp5260
(dp5261
bg20
(g109
g547
g25
g163
g3004
g2772
g2769
g711
g183
tp5262
Rp5263
(dp5264
bg20
(g137
g454
g25
g163
g3004
g2772
g2769
g186
g144
tp5265
Rp5266
(dp5267
bg20
(g4900
g454
g163
g205
g3004
g2772
g2769
g119
g2802
tp5268
Rp5269
(dp5270
bg20
(g4900
g454
g3004
g171
g2772
g2769
g119
g2802
g183
tp5271
Rp5272
(dp5273
bg20
(g1488
g547
g25
g163
g3004
g2772
g2769
g312
g2802
tp5274
Rp5275
(dp5276
bg20
(g3154
g454
g163
g205
g3004
g2772
g2769
g186
g119
tp5277
Rp5278
(dp5279
bg20
(g237
g547
g25
g205
g3004
g2772
g2769
g312
g183
tp5280
Rp5281
(dp5282
bg20
(g237
g547
g3004
g60
g2772
g2769
g312
g100
g183
tp5283
Rp5284
(dp5285
bg20
(g137
g454
g25
g163
g3004
g2772
g2769
g186
g119
g100
tp5286
Rp5287
(dp5288
bg20
(g137
g454
g25
g205
g3004
g2772
g2769
g119
g100
g183
tp5289
Rp5290
(dp5291
btp5292
Rp5293
(dp5294
bag19
(g20
(g96
g3004
g2772
g2769
g5083
tp5295
Rp5296
(dp5297
bg20
(g96
g3004
g2772
g2769
g5101
g183
tp5298
Rp5299
(dp5300
bg20
(g109
g25
g205
g2772
g2769
g2989
tp5301
Rp5302
(dp5303
bg20
(g109
g60
g2772
g2769
g2989
g100
tp5304
Rp5305
(dp5306
bg20
(g4048
g2920
g25
g205
g68
g3004
g2769
tp5307
Rp5308
(dp5309
bg20
(g4048
g2920
g68
g3004
g60
g2769
g100
tp5310
Rp5311
(dp5312
bg20
(g873
g3278
g25
g3004
g2772
g2769
g100
tp5313
Rp5314
(dp5315
bg20
(g3394
g454
g3004
g60
g2772
g2769
g103
tp5316
Rp5317
(dp5318
bg20
(g109
g25
g163
g2772
g2769
g2989
g183
tp5319
Rp5320
(dp5321
bg20
(g3154
g454
g3004
g213
g2772
g2769
g119
tp5322
Rp5323
(dp5324
bg20
(g4048
g2920
g25
g163
g68
g3004
g2769
g183
tp5325
Rp5326
(dp5327
bg20
(g828
g454
g3004
g60
g2772
g2769
g119
g2784
tp5328
Rp5329
(dp5330
bg20
(g5251
g454
g25
g205
g3004
g2772
g2769
g144
tp5331
Rp5332
(dp5333
bg20
(g5251
g454
g3004
g60
g2772
g2769
g144
g100
tp5334
Rp5335
(dp5336
bg20
(g3394
g547
g25
g163
g3004
g2772
g2769
g318
tp5337
Rp5338
(dp5339
bg20
(g137
g547
g25
g205
g3004
g2772
g2769
g312
tp5340
Rp5341
(dp5342
bg20
(g137
g547
g3004
g60
g2772
g2769
g312
g100
tp5343
Rp5344
(dp5345
bg20
(g3154
g454
g3004
g171
g2772
g2769
g186
g119
tp5346
Rp5347
(dp5348
bg20
(g828
g547
g25
g163
g3004
g2772
g2769
g321
g2802
tp5349
Rp5350
(dp5351
bg20
(g5251
g454
g25
g163
g3004
g2772
g2769
g144
g183
tp5352
Rp5353
(dp5354
bg20
(g192
g547
g25
g205
g3004
g2772
g2769
g321
g183
tp5355
Rp5356
(dp5357
bg20
(g192
g547
g3004
g60
g2772
g2769
g321
g100
g183
tp5358
Rp5359
(dp5360
bg20
(g137
g454
g25
g205
g3004
g2772
g2769
g119
g100
tp5361
Rp5362
(dp5363
bg20
(g137
g547
g25
g163
g3004
g2772
g2769
g312
g183
tp5364
Rp5365
(dp5366
bg20
(g5185
g454
g163
g205
g3004
g2772
g2769
g119
g183
tp5367
Rp5368
(dp5369
bg20
(g137
g454
g25
g163
g3004
g2772
g2769
g119
g100
g183
tp5370
Rp5371
(dp5372
btp5373
Rp5374
(dp5375
bag19
(g20
(g116
g3004
g2769
g19
(g20
(g2996
g163
tp5376
Rp5377
(dp5378
bg20
(g3338
g2920
tp5379
Rp5380
(dp5381
btp5382
Rp5383
(dp5384
btp5385
Rp5386
(dp5387
bg20
(g2920
g163
g2769
g2989
tp5388
Rp5389
(dp5390
bg20
(g68
g3004
g3430
g2769
g2802
tp5391
Rp5392
(dp5393
bg20
(g1476
g163
g3004
g2928
g2850
g2769
tp5394
Rp5395
(dp5396
bg20
(g125
g163
g68
g3004
g1200
g2769
tp5397
Rp5398
(dp5399
bg20
(g125
g163
g68
g3004
g822
g2769
tp5400
Rp5401
(dp5402
bg20
(g109
g163
g68
g3004
g213
g2769
tp5403
Rp5404
(dp5405
bg20
(g163
g68
g3004
g60
g2769
g2784
tp5406
Rp5407
(dp5408
bg20
(g4894
g2920
g547
g163
g3004
g2769
g312
tp5409
Rp5410
(dp5411
bg20
(g4900
g2920
g547
g205
g3004
g2769
g321
tp5412
Rp5413
(dp5414
bg20
(g3019
g205
g68
g3004
g171
g2769
g183
tp5415
Rp5416
(dp5417
bg20
(g4900
g2920
g547
g25
g3004
g2769
g321
g100
tp5418
Rp5419
(dp5420
bg20
(g3019
g25
g163
g205
g68
g3004
g2769
g100
tp5421
Rp5422
(dp5423
bg20
(g3019
g25
g68
g3004
g171
g2769
g100
g183
tp5424
Rp5425
(dp5426
btp5427
Rp5428
(dp5429
bag19
(g20
(g819
g3004
g2772
g2769
g19
(g20
(g3056
g163
tp5430
Rp5431
(dp5432
bg20
(g3338
g454
tp5433
Rp5434
(dp5435
btp5436
Rp5437
(dp5438
btp5439
Rp5440
(dp5441
bg20
(g125
g454
g163
g2772
g2769
g2989
tp5442
Rp5443
(dp5444
bg20
(g4936
g2920
g454
g163
g68
g3004
g2769
tp5445
Rp5446
(dp5447
bg20
(g137
g163
g3004
g213
g2772
g2769
g144
tp5448
Rp5449
(dp5450
bg20
(g137
g3004
g3430
g2772
g2769
g186
g144
tp5451
Rp5452
(dp5453
bg20
(g4942
g454
g547
g163
g3004
g2772
g2769
g312
tp5454
Rp5455
(dp5456
bg20
(g192
g163
g3004
g213
g2772
g2769
g119
g100
tp5457
Rp5458
(dp5459
bg20
(g192
g3004
g3430
g2772
g2769
g186
g119
g100
tp5460
Rp5461
(dp5462
bg20
(g4948
g454
g547
g205
g3004
g2772
g2769
g321
tp5463
Rp5464
(dp5465
bg20
(g109
g25
g163
g205
g3004
g2772
g2769
g131
tp5466
Rp5467
(dp5468
bg20
(g109
g25
g3004
g171
g2772
g2769
g131
g183
tp5469
Rp5470
(dp5471
bg20
(g109
g163
g3004
g60
g2772
g2769
g131
g100
tp5472
Rp5473
(dp5474
bg20
(g1488
g163
g3004
g60
g2772
g2769
g144
g2784
tp5475
Rp5476
(dp5477
bg20
(g3154
g205
g3004
g171
g2772
g2769
g144
g183
tp5478
Rp5479
(dp5480
bg20
(g3160
g205
g3004
g171
g2772
g2769
g119
g100
g183
tp5481
Rp5482
(dp5483
bg20
(g828
g25
g163
g205
g3004
g2772
g2769
g119
g2784
tp5484
Rp5485
(dp5486
bg20
(g828
g25
g3004
g171
g2772
g2769
g119
g2784
g183
tp5487
Rp5488
(dp5489
bg20
(g4948
g454
g547
g25
g3004
g2772
g2769
g321
g100
tp5490
Rp5491
(dp5492
bg20
(g3145
g25
g163
g205
g3004
g2772
g2769
g144
g100
tp5493
Rp5494
(dp5495
bg20
(g3145
g25
g3004
g171
g2772
g2769
g144
g100
g183
tp5496
Rp5497
(dp5498
btp5499
Rp5500
(dp5501
bag19
(g20
(g819
g3004
g2772
g2769
g19
(g20
(g3179
g163
tp5502
Rp5503
(dp5504
bg20
(g3338
g547
tp5505
Rp5506
(dp5507
btp5508
Rp5509
(dp5510
btp5511
Rp5512
(dp5513
bg20
(g125
g547
g163
g2772
g2769
g2989
tp5514
Rp5515
(dp5516
bg20
(g4936
g2920
g547
g163
g68
g3004
g2769
tp5517
Rp5518
(dp5519
bg20
(g4942
g163
g3004
g822
g2772
g2769
g312
tp5520
Rp5521
(dp5522
bg20
(g4948
g205
g3004
g822
g2772
g2769
g321
tp5523
Rp5524
(dp5525
bg20
(g109
g205
g3004
g171
g2772
g2769
g351
tp5526
Rp5527
(dp5528
bg20
(g109
g3004
g3430
g2772
g2769
g351
g183
tp5529
Rp5530
(dp5531
bg20
(g137
g163
g3004
g213
g2772
g2769
g312
tp5532
Rp5533
(dp5534
bg20
(g1488
g3004
g3430
g2772
g2769
g312
g2802
tp5535
Rp5536
(dp5537
bg20
(g828
g205
g3004
g171
g2772
g2769
g321
g2802
tp5538
Rp5539
(dp5540
bg20
(g192
g163
g3004
g213
g2772
g2769
g321
g183
tp5541
Rp5542
(dp5543
bg20
(g4948
g25
g3004
g822
g2772
g2769
g321
g100
tp5544
Rp5545
(dp5546
bg20
(g109
g25
g3004
g171
g2772
g2769
g351
g100
tp5547
Rp5548
(dp5549
bg20
(g3145
g205
g3004
g171
g2772
g2769
g312
g183
tp5550
Rp5551
(dp5552
bg20
(g137
g163
g3004
g60
g2772
g2769
g306
g312
tp5553
Rp5554
(dp5555
bg20
(g828
g25
g3004
g171
g2772
g2769
g321
g2802
g100
tp5556
Rp5557
(dp5558
bg20
(g192
g163
g3004
g60
g2772
g2769
g306
g321
g183
tp5559
Rp5560
(dp5561
bg20
(g3145
g25
g3004
g171
g2772
g2769
g312
g100
g183
tp5562
Rp5563
(dp5564
bg20
(g3154
g25
g163
g205
g3004
g2772
g2769
g312
g100
tp5565
Rp5566
(dp5567
bg20
(g3160
g25
g163
g205
g3004
g2772
g2769
g321
g100
g183
tp5568
Rp5569
(dp5570
btp5571
Rp5572
(dp5573
bag19
(g20
(g116
g3004
g2772
g2769
g2784
g19
(g20
(g3278
g163
tp5574
Rp5575
(dp5576
bg20
(g3338
g25
tp5577
Rp5578
(dp5579
btp5580
Rp5581
(dp5582
btp5583
Rp5584
(dp5585
bg20
(g96
g3004
g2772
g2769
g19
(g20
(g3338
g205
tp5586
Rp5587
(dp5588
bg20
(g3299
g163
tp5589
Rp5590
(dp5591
btp5592
Rp5593
(dp5594
bg100
tp5595
Rp5596
(dp5597
bg20
(g25
g163
g2772
g2769
g2989
g2784
tp5598
Rp5599
(dp5600
bg20
(g109
g163
g205
g2772
g2769
g2989
g100
tp5601
Rp5602
(dp5603
bg20
(g109
g171
g2772
g2769
g2989
g100
g183
tp5604
Rp5605
(dp5606
bg20
(g2931
g2920
g25
g163
g68
g3004
g2769
g2784
tp5607
Rp5608
(dp5609
bg20
(g4048
g2920
g163
g205
g68
g3004
g2769
g100
tp5610
Rp5611
(dp5612
bg20
(g62
(I-4
I9
tp5613
Rp5614
(dp5615
bg2920
g68
g3004
g171
g2769
g100
g183
tp5616
Rp5617
(dp5618
bg20
(g873
g3338
g163
g3004
g2772
g2769
g100
g183
tp5619
Rp5620
(dp5621
bg20
(g483
g2920
g25
g163
g68
g3004
g2769
g150
tp5622
Rp5623
(dp5624
bg20
(g462
g454
g25
g163
g3004
g2772
g2769
g90
tp5625
Rp5626
(dp5627
bg20
(g3394
g454
g163
g205
g3004
g2772
g2769
g103
tp5628
Rp5629
(dp5630
bg20
(g3394
g454
g3004
g171
g2772
g2769
g183
g103
tp5631
Rp5632
(dp5633
bg20
(g3394
g547
g3004
g171
g2772
g2769
g100
g318
tp5634
Rp5635
(dp5636
bg20
(g109
g454
g163
g205
g3004
g2772
g2769
g510
tp5637
Rp5638
(dp5639
bg20
(g109
g454
g3004
g171
g2772
g2769
g510
g183
tp5640
Rp5641
(dp5642
bg20
(g3154
g547
g3004
g213
g2772
g2769
g321
g100
tp5643
Rp5644
(dp5645
bg20
(g4894
g547
g25
g163
g3004
g2772
g2769
g312
g2784
tp5646
Rp5647
(dp5648
bg20
(g828
g547
g3004
g171
g2772
g2769
g321
g2802
g100
tp5649
Rp5650
(dp5651
bg20
(g96
g454
g25
g163
g3004
g2772
g2769
g100
g103
tp5652
Rp5653
(dp5654
bg20
(g5251
g547
g163
g205
g3004
g2772
g2769
g312
g100
tp5655
Rp5656
(dp5657
bg20
(g5251
g547
g3004
g171
g2772
g2769
g312
g100
g183
tp5658
Rp5659
(dp5660
bg20
(g109
g454
g25
g163
g3004
g2772
g2769
g510
g100
tp5661
Rp5662
(dp5663
bg20
(g137
g547
g25
g163
g3004
g2772
g2769
g306
g312
tp5664
Rp5665
(dp5666
bg20
(g1488
g454
g25
g163
g3004
g2772
g2769
g144
g2784
tp5667
Rp5668
(dp5669
bg20
(g4900
g547
g25
g205
g3004
g2772
g2769
g321
g2784
tp5670
Rp5671
(dp5672
bg20
(g4900
g547
g3004
g60
g2772
g2769
g321
g2784
g100
tp5673
Rp5674
(dp5675
bg20
(g237
g454
g163
g205
g3004
g2772
g2769
g144
g100
tp5676
Rp5677
(dp5678
bg20
(g237
g454
g3004
g171
g2772
g2769
g144
g100
g183
tp5679
Rp5680
(dp5681
bg20
(g3154
g547
g25
g205
g3004
g2772
g2769
g306
g321
tp5682
Rp5683
(dp5684
bg20
(g62
(I1
I27
tp5685
Rp5686
(dp5687
bg547
g25
g163
g3004
g2772
g2769
g306
g321
g183
tp5688
Rp5689
(dp5690
bg20
(g137
g547
g163
g205
g3004
g2772
g2769
g321
g100
g183
tp5691
Rp5692
(dp5693
btp5694
Rp5695
(dp5696
bag19
(g20
(g171
g2772
g2769
g2989
g2802
tp5697
Rp5698
(dp5699
bg20
(g96
g3004
g2772
g2769
g5593
g183
tp5700
Rp5701
(dp5702
bg20
(g2931
g2920
g68
g3004
g171
g2769
g2802
tp5703
Rp5704
(dp5705
bg20
(g1476
g3338
g163
g3004
g2772
g2769
g2802
tp5706
Rp5707
(dp5708
bg20
(g96
g3004
g2772
g2769
g5581
g100
g183
tp5709
Rp5710
(dp5711
bg20
(g483
g2920
g68
g3004
g171
g2769
g360
tp5712
Rp5713
(dp5714
bg20
(g462
g547
g3004
g171
g2772
g2769
g336
tp5715
Rp5716
(dp5717
bg20
(g109
g163
g205
g2772
g2769
g2989
g183
tp5718
Rp5719
(dp5720
bg20
(g4048
g2920
g163
g205
g68
g3004
g2769
g183
tp5721
Rp5722
(dp5723
bg20
(g1641
g547
g3004
g171
g2772
g2769
g312
g2802
tp5724
Rp5725
(dp5726
bg20
(g96
g547
g3004
g171
g2772
g2769
g183
g318
tp5727
Rp5728
(dp5729
bg20
(g3394
g547
g163
g205
g3004
g2772
g2769
g318
tp5730
Rp5731
(dp5732
bg20
(g109
g547
g163
g205
g3004
g2772
g2769
g711
tp5733
Rp5734
(dp5735
bg20
(g109
g547
g3004
g171
g2772
g2769
g711
g183
tp5736
Rp5737
(dp5738
bg20
(g109
g25
g163
g2772
g2769
g2989
g100
g183
tp5739
Rp5740
(dp5741
bg20
(g137
g454
g3004
g171
g2772
g2769
g186
g144
tp5742
Rp5743
(dp5744
bg20
(g3154
g547
g3004
g213
g2772
g2769
g321
g183
tp5745
Rp5746
(dp5747
bg20
(g4048
g2920
g25
g163
g68
g3004
g2769
g100
g183
tp5748
Rp5749
(dp5750
bg20
(g573
g547
g163
g205
g3004
g2772
g2769
g312
g183
tp5751
Rp5752
(dp5753
bg20
(g192
g454
g3004
g171
g2772
g2769
g186
g119
g100
tp5754
Rp5755
(dp5756
bg20
(g3394
g454
g25
g163
g3004
g2772
g2769
g183
g103
tp5757
Rp5758
(dp5759
bg20
(g3394
g547
g25
g163
g3004
g2772
g2769
g100
g318
tp5760
Rp5761
(dp5762
bg20
(g109
g547
g25
g163
g3004
g2772
g2769
g711
g100
tp5763
Rp5764
(dp5765
bg20
(g137
g454
g163
g205
g3004
g2772
g2769
g144
g183
tp5766
Rp5767
(dp5768
bg20
(g4900
g547
g163
g205
g3004
g2772
g2769
g321
g2802
tp5769
Rp5770
(dp5771
bg20
(g3154
g547
g3004
g60
g2772
g2769
g306
g321
g183
tp5772
Rp5773
(dp5774
bg20
(g573
g547
g25
g163
g3004
g2772
g2769
g312
g100
g183
tp5775
Rp5776
(dp5777
bg20
(g828
g454
g25
g163
g3004
g2772
g2769
g119
g2784
g183
tp5778
Rp5779
(dp5780
bg20
(g192
g454
g163
g205
g3004
g2772
g2769
g119
g100
g183
tp5781
Rp5782
(dp5783
bg20
(g137
g454
g25
g163
g3004
g2772
g2769
g144
g100
g183
tp5784
Rp5785
(dp5786
bg20
(g4900
g547
g25
g163
g3004
g2772
g2769
g321
g2802
g100
tp5787
Rp5788
(dp5789
bg20
(g5185
g547
g25
g205
g3004
g2772
g2769
g321
g100
g183
tp5790
Rp5791
(dp5792
btp5793
Rp5794
(dp5795
bag19
(g20
(g96
g3004
g2772
g2769
g5593
tp5796
Rp5797
(dp5798
bg20
(g96
g3004
g2772
g2769
g5581
g100
tp5799
Rp5800
(dp5801
bg20
(g109
g163
g205
g2772
g2769
g2989
tp5802
Rp5803
(dp5804
bg20
(g109
g171
g2772
g2769
g2989
g183
tp5805
Rp5806
(dp5807
bg20
(g4048
g2920
g163
g205
g68
g3004
g2769
tp5808
Rp5809
(dp5810
bg20
(g4048
g2920
g68
g3004
g171
g2769
g183
tp5811
Rp5812
(dp5813
bg20
(g873
g3338
g163
g3004
g2772
g2769
g183
tp5814
Rp5815
(dp5816
bg20
(g3394
g547
g3004
g171
g2772
g2769
g318
tp5817
Rp5818
(dp5819
bg20
(g109
g25
g163
g2772
g2769
g2989
g100
tp5820
Rp5821
(dp5822
bg20
(g3154
g547
g3004
g213
g2772
g2769
g321
tp5823
Rp5824
(dp5825
bg20
(g4048
g2920
g25
g163
g68
g3004
g2769
g100
tp5826
Rp5827
(dp5828
bg20
(g828
g547
g3004
g171
g2772
g2769
g321
g2802
tp5829
Rp5830
(dp5831
bg20
(g5251
g547
g163
g205
g3004
g2772
g2769
g312
tp5832
Rp5833
(dp5834
bg20
(g5251
g547
g3004
g171
g2772
g2769
g312
g183
tp5835
Rp5836
(dp5837
bg20
(g3394
g454
g25
g163
g3004
g2772
g2769
g103
tp5838
Rp5839
(dp5840
bg20
(g137
g454
g163
g205
g3004
g2772
g2769
g144
tp5841
Rp5842
(dp5843
bg20
(g137
g454
g3004
g171
g2772
g2769
g144
g183
tp5844
Rp5845
(dp5846
bg20
(g3154
g547
g3004
g60
g2772
g2769
g306
g321
tp5847
Rp5848
(dp5849
bg20
(g828
g454
g25
g163
g3004
g2772
g2769
g119
g2784
tp5850
Rp5851
(dp5852
bg20
(g5251
g547
g25
g163
g3004
g2772
g2769
g312
g100
tp5853
Rp5854
(dp5855
bg20
(g192
g454
g163
g205
g3004
g2772
g2769
g119
g100
tp5856
Rp5857
(dp5858
bg20
(g192
g454
g3004
g171
g2772
g2769
g119
g100
g183
tp5859
Rp5860
(dp5861
bg20
(g137
g454
g25
g163
g3004
g2772
g2769
g144
g100
tp5862
Rp5863
(dp5864
bg20
(g137
g547
g163
g205
g3004
g2772
g2769
g321
g183
tp5865
Rp5866
(dp5867
bg20
(g5185
g547
g25
g205
g3004
g2772
g2769
g321
g100
tp5868
Rp5869
(dp5870
bg20
(g5686
g547
g25
g163
g3004
g2772
g2769
g321
g100
g183
tp5871
Rp5872
(dp5873
btp5874
Rp5875
(dp5876
bag19
(g20
(g116
g3004
g2769
g19
(g20
(g2996
g205
tp5877
Rp5878
(dp5879
bg20
(g3299
g2920
tp5880
Rp5881
(dp5882
btp5883
Rp5884
(dp5885
btp5886
Rp5887
(dp5888
bg20
(g2920
g205
g2769
g2989
tp5889
Rp5890
(dp5891
bg20
(g109
g68
g3004
g3319
g2769
tp5892
Rp5893
(dp5894
bg20
(g1476
g205
g3004
g2928
g2850
g2769
tp5895
Rp5896
(dp5897
bg20
(g125
g205
g68
g3004
g1200
g2769
tp5898
Rp5899
(dp5900
bg20
(g125
g205
g68
g3004
g822
g2769
tp5901
Rp5902
(dp5903
bg20
(g205
g68
g3004
g60
g2769
g2784
tp5904
Rp5905
(dp5906
bg20
(g205
g68
g3004
g171
g2769
g2802
tp5907
Rp5908
(dp5909
bg20
(g1476
g2920
g454
g25
g3004
g2769
g131
tp5910
Rp5911
(dp5912
bg20
(g1476
g2920
g547
g163
g3004
g2769
g351
tp5913
Rp5914
(dp5915
bg20
(g3829
g2920
g454
g205
g3004
g2769
g144
tp5916
Rp5917
(dp5918
bg20
(g3829
g2920
g547
g205
g3004
g2769
g312
tp5919
Rp5920
(dp5921
bg20
(g3019
g25
g68
g3004
g213
g2769
g100
tp5922
Rp5923
(dp5924
bg20
(g3019
g163
g68
g3004
g213
g2769
g183
tp5925
Rp5926
(dp5927
bg20
(g3829
g2920
g454
g163
g3004
g2769
g144
g183
tp5928
Rp5929
(dp5930
bg20
(g3829
g2920
g547
g25
g3004
g2769
g312
g100
tp5931
Rp5932
(dp5933
bg20
(g3019
g25
g163
g205
g68
g3004
g2769
g100
g183
tp5934
Rp5935
(dp5936
btp5937
Rp5938
(dp5939
bag19
(g20
(g819
g3004
g2772
g2769
g19
(g20
(g3056
g205
tp5940
Rp5941
(dp5942
bg20
(g3299
g454
tp5943
Rp5944
(dp5945
btp5946
Rp5947
(dp5948
btp5949
Rp5950
(dp5951
bg20
(g125
g454
g205
g2772
g2769
g2989
tp5952
Rp5953
(dp5954
bg20
(g137
g3004
g3319
g2772
g2769
g144
tp5955
Rp5956
(dp5957
bg20
(g4936
g2920
g454
g205
g68
g3004
g2769
tp5958
Rp5959
(dp5960
bg20
(g62
(I-1
I3
tp5961
Rp5962
(dp5963
bg25
g3004
g1200
g2772
g2769
g131
tp5964
Rp5965
(dp5966
bg20
(g3865
g205
g3004
g1200
g2772
g2769
g144
tp5967
Rp5968
(dp5969
bg20
(g192
g3004
g3319
g2772
g2769
g119
g100
tp5970
Rp5971
(dp5972
bg20
(g109
g25
g3004
g213
g2772
g2769
g131
tp5973
Rp5974
(dp5975
bg20
(g5962
g454
g547
g163
g3004
g2772
g2769
g351
tp5976
Rp5977
(dp5978
bg20
(g828
g25
g3004
g213
g2772
g2769
g119
g2784
tp5979
Rp5980
(dp5981
bg20
(g3865
g454
g547
g205
g3004
g2772
g2769
g312
tp5982
Rp5983
(dp5984
bg20
(g3865
g163
g3004
g1200
g2772
g2769
g144
g183
tp5985
Rp5986
(dp5987
bg20
(g3145
g25
g3004
g213
g2772
g2769
g144
g100
tp5988
Rp5989
(dp5990
bg20
(g109
g205
g3004
g60
g2772
g2769
g131
g100
tp5991
Rp5992
(dp5993
bg20
(g137
g205
g3004
g171
g2772
g2769
g186
g144
tp5994
Rp5995
(dp5996
bg20
(g1488
g205
g3004
g60
g2772
g2769
g144
g2784
tp5997
Rp5998
(dp5999
bg20
(g3154
g163
g3004
g213
g2772
g2769
g144
g183
tp6000
Rp6001
(dp6002
bg20
(g3160
g163
g3004
g213
g2772
g2769
g119
g100
g183
tp6003
Rp6004
(dp6005
bg20
(g3865
g454
g547
g25
g3004
g2772
g2769
g312
g100
tp6006
Rp6007
(dp6008
bg20
(g192
g205
g3004
g171
g2772
g2769
g186
g119
g100
tp6009
Rp6010
(dp6011
bg20
(g109
g25
g163
g205
g3004
g2772
g2769
g131
g183
tp6012
Rp6013
(dp6014
bg20
(g828
g25
g163
g205
g3004
g2772
g2769
g119
g2784
g183
tp6015
Rp6016
(dp6017
bg20
(g3145
g25
g163
g205
g3004
g2772
g2769
g144
g100
g183
tp6018
Rp6019
(dp6020
btp6021
Rp6022
(dp6023
bag19
(g20
(g819
g3004
g2772
g2769
g19
(g20
(g3179
g205
tp6024
Rp6025
(dp6026
bg20
(g3299
g547
tp6027
Rp6028
(dp6029
btp6030
Rp6031
(dp6032
btp6033
Rp6034
(dp6035
bg20
(g125
g547
g205
g2772
g2769
g2989
tp6036
Rp6037
(dp6038
bg20
(g137
g3004
g3319
g2772
g2769
g312
tp6039
Rp6040
(dp6041
bg20
(g4936
g2920
g547
g205
g68
g3004
g2769
tp6042
Rp6043
(dp6044
bg20
(g5962
g163
g3004
g822
g2772
g2769
g351
tp6045
Rp6046
(dp6047
bg20
(g3865
g205
g3004
g822
g2772
g2769
g312
tp6048
Rp6049
(dp6050
bg20
(g192
g3004
g3319
g2772
g2769
g321
g183
tp6051
Rp6052
(dp6053
bg20
(g109
g163
g3004
g213
g2772
g2769
g351
tp6054
Rp6055
(dp6056
bg20
(g5962
g454
g547
g25
g3004
g2772
g2769
g131
tp6057
Rp6058
(dp6059
bg20
(g828
g163
g3004
g213
g2772
g2769
g321
g2802
tp6060
Rp6061
(dp6062
bg20
(g3865
g454
g547
g205
g3004
g2772
g2769
g144
tp6063
Rp6064
(dp6065
bg20
(g3865
g25
g3004
g822
g2772
g2769
g312
g100
tp6066
Rp6067
(dp6068
bg20
(g3145
g163
g3004
g213
g2772
g2769
g312
g183
tp6069
Rp6070
(dp6071
bg20
(g109
g205
g3004
g171
g2772
g2769
g351
g183
tp6072
Rp6073
(dp6074
bg20
(g137
g205
g3004
g60
g2772
g2769
g306
g312
tp6075
Rp6076
(dp6077
bg20
(g1488
g205
g3004
g171
g2772
g2769
g312
g2802
tp6078
Rp6079
(dp6080
bg20
(g3154
g25
g3004
g213
g2772
g2769
g312
g100
tp6081
Rp6082
(dp6083
bg20
(g3160
g25
g3004
g213
g2772
g2769
g321
g100
g183
tp6084
Rp6085
(dp6086
bg20
(g3865
g454
g547
g163
g3004
g2772
g2769
g144
g183
tp6087
Rp6088
(dp6089
bg20
(g192
g205
g3004
g60
g2772
g2769
g306
g321
g183
tp6090
Rp6091
(dp6092
bg20
(g109
g25
g163
g205
g3004
g2772
g2769
g351
g100
tp6093
Rp6094
(dp6095
bg20
(g828
g25
g163
g205
g3004
g2772
g2769
g321
g2802
g100
tp6096
Rp6097
(dp6098
bg20
(g3145
g25
g163
g205
g3004
g2772
g2769
g312
g100
g183
tp6099
Rp6100
(dp6101
btp6102
Rp6103
(dp6104
bag19
(g20
(g116
g3004
g2772
g2769
g2784
g19
(g20
(g3278
g205
tp6105
Rp6106
(dp6107
bg20
(g3299
g25
tp6108
Rp6109
(dp6110
btp6111
Rp6112
(dp6113
btp6114
Rp6115
(dp6116
bg20
(g109
g213
g2772
g2769
g2989
g100
tp6117
Rp6118
(dp6119
bg20
(g25
g205
g2772
g2769
g2989
g2784
tp6120
Rp6121
(dp6122
bg20
(g5614
g2920
g68
g3004
g213
g2769
g100
tp6123
Rp6124
(dp6125
bg20
(g873
g3299
g205
g3004
g2772
g2769
g100
tp6126
Rp6127
(dp6128
bg20
(g96
g3004
g2772
g2769
g19
(g20
(g3338
g205
tp6129
Rp6130
(dp6131
bg20
(g3299
g163
tp6132
Rp6133
(dp6134
btp6135
Rp6136
(dp6137
bg100
g183
tp6138
Rp6139
(dp6140
bg20
(g3394
g454
g3004
g213
g2772
g2769
g103
tp6141
Rp6142
(dp6143
bg20
(g109
g454
g3004
g213
g2772
g2769
g510
tp6144
Rp6145
(dp6146
bg20
(g2931
g2920
g25
g205
g68
g3004
g2769
g2784
tp6147
Rp6148
(dp6149
bg20
(g1476
g454
g3004
g60
g2772
g2769
g131
g2784
tp6150
Rp6151
(dp6152
bg20
(g483
g2920
g25
g205
g68
g3004
g2769
g150
tp6153
Rp6154
(dp6155
bg20
(g62
(I-1
I27
tp6156
Rp6157
(dp6158
bg547
g3004
g213
g2772
g2769
g312
g100
tp6159
Rp6160
(dp6161
bg20
(g462
g454
g25
g205
g3004
g2772
g2769
g90
tp6162
Rp6163
(dp6164
bg20
(g109
g163
g205
g2772
g2769
g2989
g100
g183
tp6165
Rp6166
(dp6167
bg20
(g1476
g547
g25
g163
g3004
g2772
g2769
g351
g2784
tp6168
Rp6169
(dp6170
bg20
(g5614
g2920
g163
g205
g68
g3004
g2769
g100
g183
tp6171
Rp6172
(dp6173
bg20
(g3829
g547
g25
g205
g3004
g2772
g2769
g312
g2784
tp6174
Rp6175
(dp6176
bg20
(g3829
g547
g3004
g60
g2772
g2769
g312
g2784
g100
tp6177
Rp6178
(dp6179
bg20
(g4942
g547
g163
g205
g3004
g2772
g2769
g351
g100
tp6180
Rp6181
(dp6182
bg20
(g4942
g547
g3004
g171
g2772
g2769
g351
g100
g183
tp6183
Rp6184
(dp6185
bg20
(g3160
g454
g3004
g171
g2772
g2769
g186
g144
g100
tp6186
Rp6187
(dp6188
bg20
(g62
(I-1
I9
tp6189
Rp6190
(dp6191
bg454
g25
g205
g3004
g2772
g2769
g510
g100
tp6192
Rp6193
(dp6194
bg20
(g96
g454
g25
g205
g3004
g2772
g2769
g100
g103
tp6195
Rp6196
(dp6197
bg20
(g6157
g547
g25
g205
g3004
g2772
g2769
g306
g312
tp6198
Rp6199
(dp6200
bg20
(g192
g547
g3004
g213
g2772
g2769
g321
g100
g183
tp6201
Rp6202
(dp6203
bg20
(g3394
g454
g163
g205
g3004
g2772
g2769
g183
g103
tp6204
Rp6205
(dp6206
bg20
(g3394
g547
g163
g205
g3004
g2772
g2769
g100
g318
tp6207
Rp6208
(dp6209
bg20
(g109
g454
g163
g205
g3004
g2772
g2769
g510
g183
tp6210
Rp6211
(dp6212
bg20
(g3829
g454
g25
g163
g3004
g2772
g2769
g144
g2784
g183
tp6213
Rp6214
(dp6215
bg20
(g4942
g454
g25
g163
g3004
g2772
g2769
g131
g100
g183
tp6216
Rp6217
(dp6218
bg20
(g3160
g454
g163
g205
g3004
g2772
g2769
g144
g100
g183
tp6219
Rp6220
(dp6221
bg20
(g3160
g547
g25
g163
g3004
g2772
g2769
g306
g312
g183
tp6222
Rp6223
(dp6224
bg20
(g828
g547
g163
g205
g3004
g2772
g2769
g321
g2802
g100
tp6225
Rp6226
(dp6227
bg20
(g192
g547
g25
g205
g3004
g2772
g2769
g306
g321
g183
tp6228
Rp6229
(dp6230
bg20
(g6157
g547
g163
g205
g3004
g2772
g2769
g312
g100
g183
tp6231
Rp6232
(dp6233
btp6234
Rp6235
(dp6236
bag19
(g20
(g116
g3004
g2772
g2769
g2802
g6136
tp6237
Rp6238
(dp6239
bg20
(g109
g213
g2772
g2769
g2989
g183
tp6240
Rp6241
(dp6242
bg20
(g163
g205
g2772
g2769
g2989
g2802
tp6243
Rp6244
(dp6245
bg20
(g5614
g2920
g68
g3004
g213
g2769
g183
tp6246
Rp6247
(dp6248
bg20
(g873
g3299
g205
g3004
g2772
g2769
g183
tp6249
Rp6250
(dp6251
bg20
(g96
g3004
g2772
g2769
g6112
g100
g183
tp6252
Rp6253
(dp6254
bg20
(g3394
g547
g3004
g213
g2772
g2769
g318
tp6255
Rp6256
(dp6257
bg20
(g109
g547
g3004
g213
g2772
g2769
g711
tp6258
Rp6259
(dp6260
bg20
(g2931
g2920
g163
g205
g68
g3004
g2769
g2802
tp6261
Rp6262
(dp6263
bg20
(g1476
g547
g3004
g171
g2772
g2769
g351
g2802
tp6264
Rp6265
(dp6266
bg20
(g483
g2920
g163
g205
g68
g3004
g2769
g360
tp6267
Rp6268
(dp6269
bg20
(g6157
g454
g3004
g213
g2772
g2769
g144
g183
tp6270
Rp6271
(dp6272
bg20
(g462
g547
g163
g205
g3004
g2772
g2769
g336
tp6273
Rp6274
(dp6275
bg20
(g109
g25
g205
g2772
g2769
g2989
g100
g183
tp6276
Rp6277
(dp6278
bg20
(g1476
g454
g25
g163
g3004
g2772
g2769
g131
g2802
tp6279
Rp6280
(dp6281
bg20
(g5614
g2920
g25
g205
g68
g3004
g2769
g100
g183
tp6282
Rp6283
(dp6284
bg20
(g3829
g454
g163
g205
g3004
g2772
g2769
g144
g2802
tp6285
Rp6286
(dp6287
bg20
(g3829
g454
g3004
g171
g2772
g2769
g144
g2802
g183
tp6288
Rp6289
(dp6290
bg20
(g4942
g454
g25
g205
g3004
g2772
g2769
g131
g183
tp6291
Rp6292
(dp6293
bg20
(g4942
g454
g3004
g60
g2772
g2769
g131
g100
g183
tp6294
Rp6295
(dp6296
bg20
(g3160
g547
g3004
g60
g2772
g2769
g306
g312
g183
tp6297
Rp6298
(dp6299
bg20
(g6190
g547
g163
g205
g3004
g2772
g2769
g711
g183
tp6300
Rp6301
(dp6302
bg20
(g96
g547
g163
g205
g3004
g2772
g2769
g183
g318
tp6303
Rp6304
(dp6305
bg20
(g6157
g454
g163
g205
g3004
g2772
g2769
g186
g144
tp6306
Rp6307
(dp6308
bg20
(g192
g454
g3004
g213
g2772
g2769
g119
g100
g183
tp6309
Rp6310
(dp6311
bg20
(g3394
g454
g25
g205
g3004
g2772
g2769
g183
g103
tp6312
Rp6313
(dp6314
bg20
(g3394
g547
g25
g205
g3004
g2772
g2769
g100
g318
tp6315
Rp6316
(dp6317
bg20
(g109
g547
g25
g205
g3004
g2772
g2769
g711
g100
tp6318
Rp6319
(dp6320
bg20
(g3829
g547
g25
g163
g3004
g2772
g2769
g312
g2802
g100
tp6321
Rp6322
(dp6323
bg20
(g4942
g547
g25
g163
g3004
g2772
g2769
g351
g100
g183
tp6324
Rp6325
(dp6326
bg20
(g3160
g454
g25
g163
g3004
g2772
g2769
g186
g144
g100
tp6327
Rp6328
(dp6329
bg20
(g3160
g547
g25
g205
g3004
g2772
g2769
g312
g100
g183
tp6330
Rp6331
(dp6332
bg20
(g828
g454
g25
g205
g3004
g2772
g2769
g119
g2784
g183
tp6333
Rp6334
(dp6335
bg20
(g6157
g454
g25
g205
g3004
g2772
g2769
g144
g100
g183
tp6336
Rp6337
(dp6338
bg20
(g192
g454
g163
g205
g3004
g2772
g2769
g186
g119
g100
tp6339
Rp6340
(dp6341
btp6342
Rp6343
(dp6344
bag19
(g20
(g109
g213
g2772
g2769
g2989
tp6345
Rp6346
(dp6347
bg20
(g4048
g2920
g68
g3004
g213
g2769
tp6348
Rp6349
(dp6350
bg20
(g873
g3299
g205
g3004
g2772
g2769
tp6351
Rp6352
(dp6353
bg20
(g96
g3004
g2772
g2769
g6112
g100
tp6354
Rp6355
(dp6356
bg20
(g96
g3004
g2772
g2769
g6136
g183
tp6357
Rp6358
(dp6359
bg20
(g192
g454
g3004
g213
g2772
g2769
g144
tp6360
Rp6361
(dp6362
bg20
(g192
g547
g3004
g213
g2772
g2769
g312
tp6363
Rp6364
(dp6365
bg20
(g109
g25
g205
g2772
g2769
g2989
g100
tp6366
Rp6367
(dp6368
bg20
(g109
g163
g205
g2772
g2769
g2989
g183
tp6369
Rp6370
(dp6371
bg20
(g4048
g2920
g25
g205
g68
g3004
g2769
g100
tp6372
Rp6373
(dp6374
bg20
(g4048
g2920
g163
g205
g68
g3004
g2769
g183
tp6375
Rp6376
(dp6377
bg20
(g4942
g454
g25
g205
g3004
g2772
g2769
g131
tp6378
Rp6379
(dp6380
bg20
(g4942
g454
g3004
g60
g2772
g2769
g131
g100
tp6381
Rp6382
(dp6383
bg20
(g4942
g547
g163
g205
g3004
g2772
g2769
g351
tp6384
Rp6385
(dp6386
bg20
(g4942
g547
g3004
g171
g2772
g2769
g351
g183
tp6387
Rp6388
(dp6389
bg20
(g3160
g454
g3004
g171
g2772
g2769
g186
g144
tp6390
Rp6391
(dp6392
bg20
(g3160
g547
g3004
g60
g2772
g2769
g306
g312
tp6393
Rp6394
(dp6395
bg20
(g192
g454
g3004
g213
g2772
g2769
g119
g100
tp6396
Rp6397
(dp6398
bg20
(g192
g547
g3004
g213
g2772
g2769
g321
g183
tp6399
Rp6400
(dp6401
bg20
(g3394
g454
g25
g205
g3004
g2772
g2769
g103
tp6402
Rp6403
(dp6404
bg20
(g3394
g547
g163
g205
g3004
g2772
g2769
g318
tp6405
Rp6406
(dp6407
bg20
(g4942
g454
g25
g163
g3004
g2772
g2769
g131
g183
tp6408
Rp6409
(dp6410
bg20
(g4942
g547
g25
g163
g3004
g2772
g2769
g351
g100
tp6411
Rp6412
(dp6413
bg20
(g828
g454
g25
g205
g3004
g2772
g2769
g119
g2784
tp6414
Rp6415
(dp6416
bg20
(g828
g547
g163
g205
g3004
g2772
g2769
g321
g2802
tp6417
Rp6418
(dp6419
bg20
(g5251
g454
g163
g205
g3004
g2772
g2769
g144
g183
tp6420
Rp6421
(dp6422
bg20
(g5251
g547
g25
g205
g3004
g2772
g2769
g312
g100
tp6423
Rp6424
(dp6425
bg20
(g192
g454
g25
g205
g3004
g2772
g2769
g144
g100
tp6426
Rp6427
(dp6428
bg20
(g192
g547
g163
g205
g3004
g2772
g2769
g312
g183
tp6429
Rp6430
(dp6431
bg20
(g3160
g454
g25
g163
g3004
g2772
g2769
g144
g100
g183
tp6432
Rp6433
(dp6434
bg20
(g3160
g547
g25
g163
g3004
g2772
g2769
g312
g100
g183
tp6435
Rp6436
(dp6437
bg20
(g192
g454
g163
g205
g3004
g2772
g2769
g119
g100
g183
tp6438
Rp6439
(dp6440
bg20
(g192
g547
g25
g205
g3004
g2772
g2769
g321
g100
g183
tp6441
Rp6442
(dp6443
btp6444
Rp6445
(dp6446
basg2753
I6
sbsS'metric_inverse'
p6447
g6
(g7
g8
Ntp6448
Rp6449
(dp6450
g12
I6
sg13
(lp6451
g21
(g2761
g1476
tp6452
Rp6453
(dp6454
bag17
ag17
ag17
ag17
ag17
ag17
ag20
(g55
(I6
tp6455
Rp6456
(dp6457
bg21
(g68
g1476
tp6458
Rp6459
(dp6460
bg6453
tp6461
Rp6462
(dp6463
bag17
ag17
ag17
ag17
ag17
ag17
ag6462
ag17
ag17
ag17
ag17
ag17
ag17
ag20
(g6456
g6459
g6453
g1512
tp6464
Rp6465
(dp6466
bag17
ag20
(g55
(I-6
tp6467
Rp6468
(dp6469
bg6459
g6453
g1512
g100
tp6470
Rp6471
(dp6472
bag17
ag17
ag17
ag17
ag20
(g6456
g6459
g6453
g1875
tp6473
Rp6474
(dp6475
bag20
(g6468
g6459
g6453
g1875
g183
tp6476
Rp6477
(dp6478
bag17
ag17
ag17
ag20
(g6468
g6459
g6453
g1512
g100
tp6479
Rp6480
(dp6481
bag6477
ag20
(g3073
g6459
g6453
g19
(g116
g20
(g57
g1512
tp6482
Rp6483
(dp6484
bg20
(g57
g1875
tp6485
Rp6486
(dp6487
btp6488
Rp6489
(dp6490
btp6491
Rp6492
(dp6493
basg2753
I6
sbsS'params'
p6494
(lp6495
g22
(S'p_0'
p6496
tp6497
Rp6498
(dp6499
g27
g6
(g28
g29
(dp6500
g43
I01
stp6501
Rp6502
(dp6503
g53
(dp6504
sbsbag22
(S'p_1'
p6505
tp6506
Rp6507
(dp6508
g27
g6
(g28
g29
(dp6509
g43
I01
stp6510
Rp6511
(dp6512
g53
(dp6513
sbsbag22
(S'p_2'
p6514
tp6515
Rp6516
(dp6517
g27
g6
(g28
g29
(dp6518
g43
I01
stp6519
Rp6520
(dp6521
g53
(dp6522
sbsbag2761
ag22
(S'p_4'
p6523
tp6524
Rp6525
(dp6526
g27
g6
(g28
g29
(dp6527
g43
I01
stp6528
Rp6529
(dp6530
g53
(dp6531
sbsbag22
(S'p_5'
p6532
tp6533
Rp6534
(dp6535
g27
g6
(g28
g29
(dp6536
g43
I01
stp6537
Rp6538
(dp6539
g53
(dp6540
sbsbag22
(S'p_6'
p6541
tp6542
Rp6543
(dp6544
g27
g6
(g28
g29
(dp6545
g43
I01
stp6546
Rp6547
(dp6548
g53
(dp6549
sbsbag22
(S'p_7'
p6550
tp6551
Rp6552
(dp6553
g27
g6
(g28
g29
(dp6554
g43
I01
stp6555
Rp6556
(dp6557
g53
(dp6558
sbsbag22
(S'p_8'
p6559
tp6560
Rp6561
(dp6562
g27
g6
(g28
g29
(dp6563
g43
I01
stp6564
Rp6565
(dp6566
g53
(dp6567
sbsbag22
(S'p_9'
p6568
tp6569
Rp6570
(dp6571
g27
g6
(g28
g29
(dp6572
g43
I01
stp6573
Rp6574
(dp6575
g53
(dp6576
sbsbag22
(S'p_10'
p6577
tp6578
Rp6579
(dp6580
g27
g6
(g28
g29
(dp6581
g43
I01
stp6582
Rp6583
(dp6584
g53
(dp6585
sbsbag22
(S'p_11'
p6586
tp6587
Rp6588
(dp6589
g27
g6
(g28
g29
(dp6590
g43
I01
stp6591
Rp6592
(dp6593
g53
(dp6594
sbsbag22
(S'p_12'
p6595
tp6596
Rp6597
(dp6598
g27
g6
(g28
g29
(dp6599
g43
I01
stp6600
Rp6601
(dp6602
g53
(dp6603
sbsbag22
(S'p_13'
p6604
tp6605
Rp6606
(dp6607
g27
g6
(g28
g29
(dp6608
g43
I01
stp6609
Rp6610
(dp6611
g53
(dp6612
sbsbag22
(S'p_14'
p6613
tp6614
Rp6615
(dp6616
g27
g6
(g28
g29
(dp6617
g43
I01
stp6618
Rp6619
(dp6620
g53
(dp6621
sbsbag22
(S'p_15'
p6622
tp6623
Rp6624
(dp6625
g27
g6
(g28
g29
(dp6626
g43
I01
stp6627
Rp6628
(dp6629
g53
(dp6630
sbsbag22
(S'p_16'
p6631
tp6632
Rp6633
(dp6634
g27
g6
(g28
g29
(dp6635
g43
I01
stp6636
Rp6637
(dp6638
g53
(dp6639
sbsbag22
(S'p_17'
p6640
tp6641
Rp6642
(dp6643
g27
g6
(g28
g29
(dp6644
g43
I01
stp6645
Rp6646
(dp6647
g53
(dp6648
sbsbag22
(S'p_18'
p6649
tp6650
Rp6651
(dp6652
g27
g6
(g28
g29
(dp6653
g43
I01
stp6654
Rp6655
(dp6656
g53
(dp6657
sbsbag22
(S'p_19'
p6658
tp6659
Rp6660
(dp6661
g27
g6
(g28
g29
(dp6662
g43
I01
stp6663
Rp6664
(dp6665
g53
(dp6666
sbsbag22
(S'p_20'
p6667
tp6668
Rp6669
(dp6670
g27
g6
(g28
g29
(dp6671
g43
I01
stp6672
Rp6673
(dp6674
g53
(dp6675
sbsbag22
(S'p_21'
p6676
tp6677
Rp6678
(dp6679
g27
g6
(g28
g29
(dp6680
g43
I01
stp6681
Rp6682
(dp6683
g53
(dp6684
sbsbag22
(S'p_22'
p6685
tp6686
Rp6687
(dp6688
g27
g6
(g28
g29
(dp6689
g43
I01
stp6690
Rp6691
(dp6692
g53
(dp6693
sbsbag22
(S'p_23'
p6694
tp6695
Rp6696
(dp6697
g27
g6
(g28
g29
(dp6698
g43
I01
stp6699
Rp6700
(dp6701
g53
(dp6702
sbsbag22
(S'p_24'
p6703
tp6704
Rp6705
(dp6706
g27
g6
(g28
g29
(dp6707
g43
I01
stp6708
Rp6709
(dp6710
g53
(dp6711
sbsbag22
(S'p_25'
p6712
tp6713
Rp6714
(dp6715
g27
g6
(g28
g29
(dp6716
g43
I01
stp6717
Rp6718
(dp6719
g53
(dp6720
sbsbag22
(S'p_26'
p6721
tp6722
Rp6723
(dp6724
g27
g6
(g28
g29
(dp6725
g43
I01
stp6726
Rp6727
(dp6728
g53
(dp6729
sbsbag22
(S'p_27'
p6730
tp6731
Rp6732
(dp6733
g27
g6
(g28
g29
(dp6734
g43
I01
stp6735
Rp6736
(dp6737
g53
(dp6738
sbsbag22
(S'p_28'
p6739
tp6740
Rp6741
(dp6742
g27
g6
(g28
g29
(dp6743
g43
I01
stp6744
Rp6745
(dp6746
g53
(dp6747
sbsbag22
(S'p_29'
p6748
tp6749
Rp6750
(dp6751
g27
g6
(g28
g29
(dp6752
g43
I01
stp6753
Rp6754
(dp6755
g53
(dp6756
sbsbag22
(S'p_30'
p6757
tp6758
Rp6759
(dp6760
g27
g6
(g28
g29
(dp6761
g43
I01
stp6762
Rp6763
(dp6764
g53
(dp6765
sbsbag22
(S'p_31'
p6766
tp6767
Rp6768
(dp6769
g27
g6
(g28
g29
(dp6770
g43
I01
stp6771
Rp6772
(dp6773
g53
(dp6774
sbsbasS'coords'
p6775
(lp6776
g68
ag79
ag175
ag22
(S'f_3'
p6777
tp6778
Rp6779
(dp6780
g27
g6
(g28
g29
(dp6781
g43
I01
stp6782
Rp6783
(dp6784
g53
(dp6785
sbsbag22
(S'f_4'
p6786
tp6787
Rp6788
(dp6789
g27
g6
(g28
g29
(dp6790
g43
I01
stp6791
Rp6792
(dp6793
g53
(dp6794
sbsbag22
(S'f_5'
p6795
tp6796
Rp6797
(dp6798
g27
g6
(g28
g29
(dp6799
g43
I01
stp6800
Rp6801
(dp6802
g53
(dp6803
sbsbasS'Hij'
p6804
g6
(g7
g8
Ntp6805
Rp6806
(dp6807
g12
I6
sg13
(lp6808
g17
ag17
ag17
ag17
ag17
ag17
ag17
ag17
ag17
ag17
ag17
ag17
ag17
ag17
ag17
ag17
ag17
ag17
ag20
(g6468
g6459
g6453
g1512
g19
(g22
(S'ddV_5_0'
p6809
tp6810
Rp6811
(dp6812
g27
g6
(g28
g29
(dp6813
g31
Nsg32
Nsg33
Nsg34
Nsg35
Nsg39
Nsg37
Nsg38
Nsg41
Nsg40
Nsg42
Nsg43
I01
sg36
Nsg44
Nsg45
Nsg46
Nsg47
Nsg48
Nsg49
Nstp6814
Rp6815
(dp6816
g53
(dp6817
sbsbg20
(g116
g22
(S'dV_5'
p6818
tp6819
Rp6820
(dp6821
g27
g6
(g28
g29
(dp6822
g43
I01
sg33
Nsg34
Nsg44
Nsg45
Nsg46
Nsg35
Nsg36
Nsg47
Nsg48
Nsg37
Nsg39
Nsg49
Nsg32
Nstp6823
Rp6824
(dp6825
g53
(dp6826
sbsbg2850
tp6827
Rp6828
(dp6829
btp6830
Rp6831
(dp6832
bg100
tp6833
Rp6834
(dp6835
bag20
(g6468
g6459
g6453
g1512
g19
(g22
(S'ddV_5_1'
p6836
tp6837
Rp6838
(dp6839
g27
g6
(g28
g29
(dp6840
g31
Nsg32
Nsg33
Nsg34
Nsg35
Nsg39
Nsg37
Nsg38
Nsg41
Nsg40
Nsg42
Nsg43
I01
sg36
Nsg44
Nsg45
Nsg46
Nsg47
Nsg48
Nsg49
Nstp6841
Rp6842
(dp6843
g53
(dp6844
sbsbg20
(g828
g6820
g144
tp6845
Rp6846
(dp6847
bg20
(g972
g22
(S'dV_3'
p6848
tp6849
Rp6850
(dp6851
g27
g6
(g28
g29
(dp6852
g43
I01
sg33
Nsg34
Nsg44
Nsg45
Nsg46
Nsg35
Nsg36
Nsg47
Nsg48
Nsg37
Nsg39
Nsg49
Nsg32
Nstp6853
Rp6854
(dp6855
g53
(dp6856
sbsbg119
tp6857
Rp6858
(dp6859
btp6860
Rp6861
(dp6862
bg100
tp6863
Rp6864
(dp6865
bag20
(g6468
g6459
g6453
g1512
g19
(g22
(S'ddV_5_2'
p6866
tp6867
Rp6868
(dp6869
g27
g6
(g28
g29
(dp6870
g31
Nsg32
Nsg33
Nsg34
Nsg35
Nsg39
Nsg37
Nsg38
Nsg41
Nsg40
Nsg42
Nsg43
I01
sg36
Nsg44
Nsg45
Nsg46
Nsg47
Nsg48
Nsg49
Nstp6871
Rp6872
(dp6873
g53
(dp6874
sbsbg20
(g828
g6820
g312
tp6875
Rp6876
(dp6877
bg20
(g972
g22
(S'dV_4'
p6878
tp6879
Rp6880
(dp6881
g27
g6
(g28
g29
(dp6882
g43
I01
sg33
Nsg34
Nsg44
Nsg45
Nsg46
Nsg35
Nsg36
Nsg47
Nsg48
Nsg37
Nsg39
Nsg49
Nsg32
Nstp6883
Rp6884
(dp6885
g53
(dp6886
sbsbg321
tp6887
Rp6888
(dp6889
btp6890
Rp6891
(dp6892
bg100
tp6893
Rp6894
(dp6895
bag20
(g6468
g6459
g6453
g1512
g19
(g22
(S'ddV_5_3'
p6896
tp6897
Rp6898
(dp6899
g27
g6
(g28
g29
(dp6900
g31
Nsg32
Nsg33
Nsg34
Nsg35
Nsg39
Nsg37
Nsg38
Nsg41
Nsg40
Nsg42
Nsg43
I01
sg36
Nsg44
Nsg45
Nsg46
Nsg47
Nsg48
Nsg49
Nstp6901
Rp6902
(dp6903
g53
(dp6904
sbsbg20
(g828
g22
(S'dV_1'
p6905
tp6906
Rp6907
(dp6908
g27
g6
(g28
g29
(dp6909
g43
I01
sg33
Nsg34
Nsg44
Nsg45
Nsg46
Nsg35
Nsg36
Nsg47
Nsg48
Nsg37
Nsg39
Nsg49
Nsg32
Nstp6910
Rp6911
(dp6912
g53
(dp6913
sbsbg103
tp6914
Rp6915
(dp6916
bg20
(g109
g22
(S'dV_0'
p6917
tp6918
Rp6919
(dp6920
g27
g6
(g28
g29
(dp6921
g32
Nsg33
Nsg34
Nsg44
Nsg45
Nsg46
Nsg35
Nsg36
Nsg47
Nsg48
Nsg37
Nsg39
Nsg49
Nsg43
I01
stp6922
Rp6923
(dp6924
g53
(dp6925
sbsbg68
g100
tp6926
Rp6927
(dp6928
btp6929
Rp6930
(dp6931
bg100
tp6932
Rp6933
(dp6934
bag20
(g6468
g6459
g6453
g1512
g19
(g22
(S'ddV_5_4'
p6935
tp6936
Rp6937
(dp6938
g27
g6
(g28
g29
(dp6939
g31
Nsg32
Nsg33
Nsg34
Nsg35
Nsg39
Nsg37
Nsg38
Nsg41
Nsg40
Nsg42
Nsg43
I01
sg36
Nsg44
Nsg45
Nsg46
Nsg47
Nsg48
Nsg49
Nstp6940
Rp6941
(dp6942
g53
(dp6943
sbsbg20
(g828
g22
(S'dV_2'
p6944
tp6945
Rp6946
(dp6947
g27
g6
(g28
g29
(dp6948
g43
I01
sg33
Nsg34
Nsg44
Nsg45
Nsg46
Nsg35
Nsg36
Nsg47
Nsg48
Nsg37
Nsg39
Nsg49
Nsg32
Nstp6949
Rp6950
(dp6951
g53
(dp6952
sbsbg318
tp6953
Rp6954
(dp6955
bg20
(g109
g6919
g68
g183
tp6956
Rp6957
(dp6958
btp6959
Rp6960
(dp6961
bg100
tp6962
Rp6963
(dp6964
bag20
(g6468
g6459
g6453
g1512
g19
(g22
(S'ddV_5_5'
p6965
tp6966
Rp6967
(dp6968
g27
g6
(g28
g29
(dp6969
g31
Nsg32
Nsg33
Nsg34
Nsg35
Nsg39
Nsg37
Nsg38
Nsg41
Nsg40
Nsg42
Nsg43
I01
sg36
Nsg44
Nsg45
Nsg46
Nsg47
Nsg48
Nsg49
Nstp6970
Rp6971
(dp6972
g53
(dp6973
sbsbg20
(g109
g6919
g68
tp6974
Rp6975
(dp6976
btp6977
Rp6978
(dp6979
bg100
tp6980
Rp6981
(dp6982
bag20
(g6468
g6459
g6453
g1875
g19
(g6811
g20
(g116
g6820
g2850
tp6983
Rp6984
(dp6985
bg20
(g6456
g6459
g6453
g1875
g19
(g22
(S'ddV_4_0'
p6986
tp6987
Rp6988
(dp6989
g27
g6
(g28
g29
(dp6990
g31
Nsg32
Nsg33
Nsg34
Nsg35
Nsg39
Nsg37
Nsg38
Nsg41
Nsg40
Nsg42
Nsg43
I01
sg36
Nsg44
Nsg45
Nsg46
Nsg47
Nsg48
Nsg49
Nstp6991
Rp6992
(dp6993
g53
(dp6994
sbsbg20
(g116
g6880
g2850
tp6995
Rp6996
(dp6997
btp6998
Rp6999
(dp7000
btp7001
Rp7002
(dp7003
btp7004
Rp7005
(dp7006
bg183
tp7007
Rp7008
(dp7009
bag20
(g6468
g6459
g6453
g1875
g19
(g6838
g20
(g828
g6820
g144
tp7010
Rp7011
(dp7012
bg20
(g972
g6850
g119
tp7013
Rp7014
(dp7015
bg20
(g6456
g6459
g6453
g1875
g19
(g22
(S'ddV_4_1'
p7016
tp7017
Rp7018
(dp7019
g27
g6
(g28
g29
(dp7020
g31
Nsg32
Nsg33
Nsg34
Nsg35
Nsg39
Nsg37
Nsg38
Nsg41
Nsg40
Nsg42
Nsg43
I01
sg36
Nsg44
Nsg45
Nsg46
Nsg47
Nsg48
Nsg49
Nstp7021
Rp7022
(dp7023
g53
(dp7024
sbsbg20
(g828
g6820
g144
g183
tp7025
Rp7026
(dp7027
bg20
(g972
g6850
g119
g183
tp7028
Rp7029
(dp7030
btp7031
Rp7032
(dp7033
btp7034
Rp7035
(dp7036
btp7037
Rp7038
(dp7039
bg183
tp7040
Rp7041
(dp7042
bag20
(g6468
g6459
g6453
g1875
g19
(g6868
g20
(g828
g6820
g312
tp7043
Rp7044
(dp7045
bg20
(g972
g6880
g321
tp7046
Rp7047
(dp7048
bg20
(g6456
g6459
g6453
g1875
g19
(g22
(S'ddV_4_2'
p7049
tp7050
Rp7051
(dp7052
g27
g6
(g28
g29
(dp7053
g31
Nsg32
Nsg33
Nsg34
Nsg35
Nsg39
Nsg37
Nsg38
Nsg41
Nsg40
Nsg42
Nsg43
I01
sg36
Nsg44
Nsg45
Nsg46
Nsg47
Nsg48
Nsg49
Nstp7054
Rp7055
(dp7056
g53
(dp7057
sbsbg20
(g6820
g19
(g20
(g819
g318
tp7058
Rp7059
(dp7060
bg20
(g1488
g321
tp7061
Rp7062
(dp7063
btp7064
Rp7065
(dp7066
btp7067
Rp7068
(dp7069
bg20
(g1641
g6880
g312
tp7070
Rp7071
(dp7072
btp7073
Rp7074
(dp7075
btp7076
Rp7077
(dp7078
btp7079
Rp7080
(dp7081
bg183
tp7082
Rp7083
(dp7084
bag20
(g6468
g6459
g6453
g1875
g19
(g6898
g20
(g828
g6907
g103
tp7085
Rp7086
(dp7087
bg20
(g109
g6919
g68
g100
tp7088
Rp7089
(dp7090
bg20
(g6456
g6459
g6453
g1875
g19
(g22
(S'ddV_4_3'
p7091
tp7092
Rp7093
(dp7094
g27
g6
(g28
g29
(dp7095
g31
Nsg32
Nsg33
Nsg34
Nsg35
Nsg39
Nsg37
Nsg38
Nsg41
Nsg40
Nsg42
Nsg43
I01
sg36
Nsg44
Nsg45
Nsg46
Nsg47
Nsg48
Nsg49
Nstp7096
Rp7097
(dp7098
g53
(dp7099
sbsbg20
(g828
g6907
g183
g103
tp7100
Rp7101
(dp7102
bg20
(g828
g6946
g100
g318
tp7103
Rp7104
(dp7105
bg20
(g109
g6919
g68
g100
g183
tp7106
Rp7107
(dp7108
btp7109
Rp7110
(dp7111
btp7112
Rp7113
(dp7114
btp7115
Rp7116
(dp7117
bg183
tp7118
Rp7119
(dp7120
bag20
(g6468
g6459
g6453
g1875
g19
(g6937
g20
(g828
g6946
g318
tp7121
Rp7122
(dp7123
bg20
(g109
g6919
g68
g183
tp7124
Rp7125
(dp7126
bg20
(g6456
g6459
g6453
g1875
g19
(g22
(S'ddV_4_4'
p7127
tp7128
Rp7129
(dp7130
g27
g6
(g28
g29
(dp7131
g31
Nsg32
Nsg33
Nsg34
Nsg35
Nsg39
Nsg37
Nsg38
Nsg41
Nsg40
Nsg42
Nsg43
I01
sg36
Nsg44
Nsg45
Nsg46
Nsg47
Nsg48
Nsg49
Nstp7132
Rp7133
(dp7134
g53
(dp7135
sbsbg20
(g125
g6946
g336
tp7136
Rp7137
(dp7138
bg20
(g231
g6919
g68
g360
tp7139
Rp7140
(dp7141
btp7142
Rp7143
(dp7144
btp7145
Rp7146
(dp7147
btp7148
Rp7149
(dp7150
bg183
tp7151
Rp7152
(dp7153
bag20
(g6468
g6459
g6453
g1875
g19
(g6967
g20
(g109
g6919
g68
tp7154
Rp7155
(dp7156
bg20
(g6456
g6459
g6453
g1875
g19
(g22
(S'ddV_4_5'
p7157
tp7158
Rp7159
(dp7160
g27
g6
(g28
g29
(dp7161
g31
Nsg32
Nsg33
Nsg34
Nsg35
Nsg39
Nsg37
Nsg38
Nsg41
Nsg40
Nsg42
Nsg43
I01
sg36
Nsg44
Nsg45
Nsg46
Nsg47
Nsg48
Nsg49
Nstp7162
Rp7163
(dp7164
g53
(dp7165
sbsbg20
(g828
g6946
g318
tp7166
Rp7167
(dp7168
bg20
(g109
g6919
g68
g183
tp7169
Rp7170
(dp7171
btp7172
Rp7173
(dp7174
btp7175
Rp7176
(dp7177
btp7178
Rp7179
(dp7180
bg183
tp7181
Rp7182
(dp7183
bag20
(g3073
g6459
g6453
g6489
g19
(g6811
g20
(g116
g6820
g2850
tp7184
Rp7185
(dp7186
bg20
(g6468
g6459
g6453
g1875
g19
(g6988
g20
(g116
g6880
g2850
tp7187
Rp7188
(dp7189
bg20
(g6468
g6459
g6453
g1512
g19
(g22
(S'ddV_3_0'
p7190
tp7191
Rp7192
(dp7193
g27
g6
(g28
g29
(dp7194
g31
Nsg32
Nsg33
Nsg34
Nsg35
Nsg39
Nsg37
Nsg38
Nsg41
Nsg40
Nsg42
Nsg43
I01
sg36
Nsg44
Nsg45
Nsg46
Nsg47
Nsg48
Nsg49
Nstp7195
Rp7196
(dp7197
g53
(dp7198
sbsbg20
(g116
g6850
g2850
tp7199
Rp7200
(dp7201
btp7202
Rp7203
(dp7204
bg100
tp7205
Rp7206
(dp7207
btp7208
Rp7209
(dp7210
bg183
tp7211
Rp7212
(dp7213
btp7214
Rp7215
(dp7216
btp7217
Rp7218
(dp7219
bag20
(g3073
g6459
g6453
g6489
g19
(g6838
g20
(g828
g6820
g144
tp7220
Rp7221
(dp7222
bg20
(g972
g6850
g119
tp7223
Rp7224
(dp7225
bg20
(g6468
g6459
g6453
g1875
g19
(g7018
g20
(g828
g6820
g144
g183
tp7226
Rp7227
(dp7228
bg20
(g972
g6850
g119
g183
tp7229
Rp7230
(dp7231
bg20
(g6468
g6459
g6453
g1512
g19
(g22
(S'ddV_3_1'
p7232
tp7233
Rp7234
(dp7235
g27
g6
(g28
g29
(dp7236
g31
Nsg32
Nsg33
Nsg34
Nsg35
Nsg39
Nsg37
Nsg38
Nsg41
Nsg40
Nsg42
Nsg43
I01
sg36
Nsg44
Nsg45
Nsg46
Nsg47
Nsg48
Nsg49
Nstp7237
Rp7238
(dp7239
g53
(dp7240
sbsbg20
(g6820
g19
(g20
(g819
g103
tp7241
Rp7242
(dp7243
bg20
(g1488
g119
tp7244
Rp7245
(dp7246
btp7247
Rp7248
(dp7249
btp7250
Rp7251
(dp7252
bg20
(g1641
g6850
g144
tp7253
Rp7254
(dp7255
btp7256
Rp7257
(dp7258
bg100
tp7259
Rp7260
(dp7261
btp7262
Rp7263
(dp7264
bg183
tp7265
Rp7266
(dp7267
btp7268
Rp7269
(dp7270
btp7271
Rp7272
(dp7273
bag20
(g3073
g6459
g6453
g6489
g19
(g6868
g20
(g828
g6820
g312
tp7274
Rp7275
(dp7276
bg20
(g972
g6880
g321
tp7277
Rp7278
(dp7279
bg20
(g6468
g6459
g6453
g1875
g19
(g7051
g20
(g6820
g19
(g20
(g819
g318
tp7280
Rp7281
(dp7282
bg20
(g1488
g321
tp7283
Rp7284
(dp7285
btp7286
Rp7287
(dp7288
btp7289
Rp7290
(dp7291
bg20
(g1641
g6880
g312
tp7292
Rp7293
(dp7294
bg20
(g6468
g6459
g6453
g1512
g19
(g22
(S'ddV_3_2'
p7295
tp7296
Rp7297
(dp7298
g27
g6
(g28
g29
(dp7299
g31
Nsg32
Nsg33
Nsg34
Nsg35
Nsg39
Nsg37
Nsg38
Nsg41
Nsg40
Nsg42
Nsg43
I01
sg36
Nsg44
Nsg45
Nsg46
Nsg47
Nsg48
Nsg49
Nstp7300
Rp7301
(dp7302
g53
(dp7303
sbsbg20
(g828
g6820
g312
g100
tp7304
Rp7305
(dp7306
bg20
(g972
g6880
g321
g100
tp7307
Rp7308
(dp7309
btp7310
Rp7311
(dp7312
bg100
tp7313
Rp7314
(dp7315
btp7316
Rp7317
(dp7318
bg183
tp7319
Rp7320
(dp7321
btp7322
Rp7323
(dp7324
btp7325
Rp7326
(dp7327
bag20
(g3073
g6459
g6453
g6489
g19
(g6898
g20
(g828
g6907
g103
tp7328
Rp7329
(dp7330
bg20
(g109
g6919
g68
g100
tp7331
Rp7332
(dp7333
bg20
(g6468
g6459
g6453
g1875
g19
(g7093
g20
(g828
g6907
g183
g103
tp7334
Rp7335
(dp7336
bg20
(g828
g6946
g100
g318
tp7337
Rp7338
(dp7339
bg20
(g109
g6919
g68
g100
g183
tp7340
Rp7341
(dp7342
bg20
(g6468
g6459
g6453
g1512
g19
(g22
(S'ddV_3_3'
p7343
tp7344
Rp7345
(dp7346
g27
g6
(g28
g29
(dp7347
g31
Nsg32
Nsg33
Nsg34
Nsg35
Nsg39
Nsg37
Nsg38
Nsg41
Nsg40
Nsg42
Nsg43
I01
sg36
Nsg44
Nsg45
Nsg46
Nsg47
Nsg48
Nsg49
Nstp7348
Rp7349
(dp7350
g53
(dp7351
sbsbg20
(g125
g6907
g90
tp7352
Rp7353
(dp7354
bg20
(g231
g6919
g68
g150
tp7355
Rp7356
(dp7357
btp7358
Rp7359
(dp7360
bg100
tp7361
Rp7362
(dp7363
btp7364
Rp7365
(dp7366
bg183
tp7367
Rp7368
(dp7369
btp7370
Rp7371
(dp7372
btp7373
Rp7374
(dp7375
bag20
(g3073
g6459
g6453
g6489
g19
(g6937
g20
(g828
g6946
g318
tp7376
Rp7377
(dp7378
bg20
(g109
g6919
g68
g183
tp7379
Rp7380
(dp7381
bg20
(g6468
g6459
g6453
g1875
g19
(g7129
g20
(g125
g6946
g336
tp7382
Rp7383
(dp7384
bg20
(g231
g6919
g68
g360
tp7385
Rp7386
(dp7387
bg20
(g6468
g6459
g6453
g1512
g19
(g22
(S'ddV_3_4'
p7388
tp7389
Rp7390
(dp7391
g27
g6
(g28
g29
(dp7392
g31
Nsg32
Nsg33
Nsg34
Nsg35
Nsg39
Nsg37
Nsg38
Nsg41
Nsg40
Nsg42
Nsg43
I01
sg36
Nsg44
Nsg45
Nsg46
Nsg47
Nsg48
Nsg49
Nstp7393
Rp7394
(dp7395
g53
(dp7396
sbsbg20
(g828
g6907
g183
g103
tp7397
Rp7398
(dp7399
bg20
(g828
g6946
g100
g318
tp7400
Rp7401
(dp7402
bg20
(g109
g6919
g68
g100
g183
tp7403
Rp7404
(dp7405
btp7406
Rp7407
(dp7408
bg100
tp7409
Rp7410
(dp7411
btp7412
Rp7413
(dp7414
bg183
tp7415
Rp7416
(dp7417
btp7418
Rp7419
(dp7420
btp7421
Rp7422
(dp7423
bag20
(g3073
g6459
g6453
g6489
g19
(g6967
g20
(g109
g6919
g68
tp7424
Rp7425
(dp7426
bg20
(g6468
g6459
g6453
g1875
g19
(g7159
g20
(g828
g6946
g318
tp7427
Rp7428
(dp7429
bg20
(g109
g6919
g68
g183
tp7430
Rp7431
(dp7432
bg20
(g6468
g6459
g6453
g1512
g19
(g22
(S'ddV_3_5'
p7433
tp7434
Rp7435
(dp7436
g27
g6
(g28
g29
(dp7437
g31
Nsg32
Nsg33
Nsg34
Nsg35
Nsg39
Nsg37
Nsg38
Nsg41
Nsg40
Nsg42
Nsg43
I01
sg36
Nsg44
Nsg45
Nsg46
Nsg47
Nsg48
Nsg49
Nstp7438
Rp7439
(dp7440
g53
(dp7441
sbsbg20
(g828
g6907
g103
tp7442
Rp7443
(dp7444
bg20
(g109
g6919
g68
g100
tp7445
Rp7446
(dp7447
btp7448
Rp7449
(dp7450
bg100
tp7451
Rp7452
(dp7453
btp7454
Rp7455
(dp7456
bg183
tp7457
Rp7458
(dp7459
btp7460
Rp7461
(dp7462
btp7463
Rp7464
(dp7465
basg2753
I6
sbsS'Rsyms'
p7466
g2814
(g2815
(I0
tp7467
g2817
tp7468
Rp7469
(I1
(I6
I6
I6
I6
tp7470
g2824
I00
(lp7471
I0
aI0
aI0
aI0
aI0
aI0
aI0
aI0
aI0
aI0
aI0
aI0
aI0
aI0
aI0
aI0
aI0
aI0
aI0
aI0
aI0
aI0
aI0
aI0
aI0
aI0
aI0
aI0
aI0
aI0
aI0
aI0
aI0
aI0
aI0
aI0
aI0
ag17
ag17
ag17
ag17
ag17
ag17
aI0
ag17
ag17
ag17
ag17
ag17
ag17
aI0
ag17
ag17
ag17
ag17
ag17
ag17
aI0
ag17
ag17
ag17
ag17
ag17
ag17
aI0
ag17
ag17
ag17
ag17
ag17
ag17
aI0
aI0
ag17
ag17
ag17
ag17
ag17
ag17
aI0
ag17
ag17
ag17
ag17
ag17
ag17
aI0
ag17
ag17
ag17
ag17
ag17
ag17
aI0
ag17
ag17
ag17
ag17
ag17
ag17
aI0
ag17
ag17
ag17
ag17
ag17
ag17
aI0
aI0
ag17
ag17
ag17
ag17
ag17
ag17
aI0
ag17
ag17
ag17
ag17
ag17
ag17
aI0
ag17
ag17
ag17
ag17
ag17
ag17
aI0
ag17
ag17
ag17
ag17
ag17
ag17
aI0
ag17
ag17
ag17
ag17
ag17
ag17
aI0
aI0
ag17
ag17
ag17
ag17
ag17
ag17
aI0
ag17
ag17
ag17
ag17
ag17
ag17
aI0
ag17
ag17
ag17
ag17
ag17
ag17
aI0
ag17
ag17
ag17
ag17
ag17
ag17
aI0
ag17
ag17
ag17
ag17
ag17
ag17
aI0
aI0
ag17
ag17
ag17
ag17
ag17
ag17
aI0
ag17
ag17
ag17
ag17
ag17
ag17
aI0
ag17
ag17
ag17
ag17
ag17
ag17
aI0
ag17
ag17
ag17
ag17
ag17
ag17
aI0
ag17
ag17
ag17
ag17
ag17
ag17
aI0
aI0
ag17
ag17
ag17
ag17
ag17
ag17
aI0
ag17
ag17
ag17
ag17
ag17
ag17
aI0
ag17
ag17
ag17
ag17
ag17
ag17
aI0
ag17
ag17
ag17
ag17
ag17
ag17
aI0
ag17
ag17
ag17
ag17
ag17
ag17
aI0
aI0
aI0
aI0
aI0
aI0
aI0
aI0
aI0
aI0
aI0
aI0
aI0
aI0
aI0
aI0
aI0
aI0
aI0
aI0
aI0
aI0
aI0
aI0
aI0
aI0
aI0
aI0
aI0
aI0
aI0
aI0
aI0
aI0
aI0
aI0
aI0
aI0
ag17
ag17
ag17
ag17
ag17
ag17
aI0
ag20
(g462
g2772
g2769
tp7472
Rp7473
(dp7474
bag17
ag17
ag17
ag17
ag20
(g64
g2772
g2769
tp7475
Rp7476
(dp7477
baI0
ag17
ag17
ag17
ag17
ag17
ag17
aI0
ag20
(g62
(I-1
I36
tp7478
Rp7479
(dp7480
bg2772
g2769
g103
g318
tp7481
Rp7482
(dp7483
bag17
ag17
ag17
ag17
ag20
(g64
g2772
g2769
g103
g318
tp7484
Rp7485
(dp7486
baI0
ag17
ag17
ag17
ag17
ag17
ag17
aI0
aI0
ag17
ag17
ag17
ag17
ag17
ag17
aI0
ag17
ag20
(g231
g2772
g2769
g147
tp7487
Rp7488
(dp7489
bag17
ag17
ag17
ag17
aI0
ag17
ag20
(g483
g2772
g2769
g103
g318
tp7490
Rp7491
(dp7492
bag17
ag17
ag20
(g483
g2772
g2769
g147
tp7493
Rp7494
(dp7495
bag17
aI0
ag17
ag17
ag17
ag17
ag20
(g231
g2772
g2769
g103
g318
tp7496
Rp7497
(dp7498
bag17
aI0
ag17
ag17
ag17
ag17
ag17
ag17
aI0
aI0
ag17
ag17
ag17
ag17
ag17
ag17
aI0
ag17
ag17
ag20
(g462
g2772
g2769
g357
tp7499
Rp7500
(dp7501
bag17
ag17
ag17
aI0
ag20
(g462
g2772
g2769
g103
g318
tp7502
Rp7503
(dp7504
bag17
ag17
ag17
ag17
ag7485
aI0
ag17
ag17
ag17
ag20
(g64
g2772
g2769
g357
tp7505
Rp7506
(dp7507
bag17
ag17
aI0
ag17
ag17
ag17
ag17
ag17
ag17
aI0
aI0
ag17
ag17
ag17
ag17
ag17
ag17
aI0
ag17
ag17
ag17
ag17
ag17
ag17
aI0
ag17
ag17
ag17
ag17
ag17
ag17
aI0
ag17
ag17
ag17
ag17
ag17
ag17
aI0
ag17
ag17
ag17
ag17
ag17
ag17
aI0
aI0
ag17
ag17
ag17
ag17
ag17
ag17
aI0
ag17
ag17
ag17
ag17
ag17
ag17
aI0
ag17
ag17
ag17
ag17
ag17
ag17
aI0
ag17
ag17
ag17
ag17
ag17
ag17
aI0
ag17
ag17
ag17
ag17
ag17
ag17
aI0
aI0
ag17
ag17
ag17
ag17
ag17
ag17
aI0
ag7476
ag17
ag17
ag17
ag17
ag7473
aI0
ag17
ag17
ag17
ag17
ag17
ag17
aI0
ag7485
ag17
ag17
ag17
ag17
ag7482
aI0
ag17
ag17
ag17
ag17
ag17
ag17
aI0
aI0
aI0
aI0
aI0
aI0
aI0
aI0
aI0
aI0
aI0
aI0
aI0
aI0
aI0
aI0
aI0
aI0
aI0
aI0
aI0
aI0
aI0
aI0
aI0
aI0
aI0
aI0
aI0
aI0
aI0
aI0
aI0
aI0
aI0
aI0
aI0
aI0
ag17
ag17
ag17
ag17
ag17
ag17
aI0
ag17
ag17
ag7482
ag17
ag17
ag17
aI0
ag20
(g462
g2772
g2769
g147
tp7508
Rp7509
(dp7510
bag17
ag17
ag17
ag17
ag20
(g64
g2772
g2769
g147
tp7511
Rp7512
(dp7513
baI0
ag17
ag17
ag17
ag7485
ag17
ag17
aI0
ag17
ag17
ag17
ag17
ag17
ag17
aI0
aI0
ag17
ag17
ag17
ag17
ag17
ag17
aI0
ag17
ag7491
ag17
ag17
ag17
ag17
aI0
ag17
ag20
(g231
g2772
g2769
g357
tp7514
Rp7515
(dp7516
bag17
ag17
ag7497
ag17
aI0
ag17
ag17
ag17
ag17
ag20
(g483
g2772
g2769
g357
tp7517
Rp7518
(dp7519
bag17
aI0
ag17
ag17
ag17
ag17
ag17
ag17
aI0
aI0
ag17
ag17
ag17
ag17
ag17
ag17
aI0
ag17
ag17
ag17
ag17
ag17
ag17
aI0
ag17
ag17
ag17
ag17
ag17
ag17
aI0
ag17
ag17
ag17
ag17
ag17
ag17
aI0
ag17
ag17
ag17
ag17
ag17
ag17
aI0
aI0
ag17
ag17
ag17
ag17
ag17
ag17
aI0
ag17
ag17
ag17
ag17
ag17
ag17
aI0
ag17
ag17
ag17
ag17
ag17
ag17
aI0
ag17
ag17
ag17
ag17
ag17
ag17
aI0
ag17
ag17
ag17
ag17
ag17
ag17
aI0
aI0
ag17
ag17
ag17
ag17
ag17
ag17
aI0
ag17
ag7494
ag17
ag17
ag17
ag17
aI0
ag17
ag7497
ag17
ag17
ag7488
ag17
aI0
ag17
ag17
ag17
ag17
ag7491
ag17
aI0
ag17
ag17
ag17
ag17
ag17
ag17
aI0
aI0
ag17
ag17
ag17
ag17
ag17
ag17
aI0
ag17
ag17
ag7485
ag17
ag17
ag17
aI0
ag7512
ag17
ag17
ag17
ag17
ag7509
aI0
ag17
ag17
ag17
ag7482
ag17
ag17
aI0
ag17
ag17
ag17
ag17
ag17
ag17
aI0
aI0
aI0
aI0
aI0
aI0
aI0
aI0
aI0
aI0
aI0
aI0
aI0
aI0
aI0
aI0
aI0
aI0
aI0
aI0
aI0
aI0
aI0
aI0
aI0
aI0
aI0
aI0
aI0
aI0
aI0
aI0
aI0
aI0
aI0
aI0
aI0
aI0
ag17
ag17
ag17
ag17
ag17
ag17
aI0
ag7482
ag17
ag17
ag17
ag17
ag7485
aI0
ag17
ag17
ag17
ag17
ag17
ag17
aI0
ag20
(g462
g2772
g2769
g147
g357
tp7520
Rp7521
(dp7522
bag17
ag17
ag17
ag17
ag20
(g64
g2772
g2769
g147
g357
tp7523
Rp7524
(dp7525
baI0
ag17
ag17
ag17
ag17
ag17
ag17
aI0
aI0
ag17
ag17
ag17
ag17
ag17
ag17
aI0
ag17
ag17
ag17
ag17
ag17
ag17
aI0
ag17
ag17
ag17
ag17
ag17
ag17
aI0
ag17
ag17
ag17
ag17
ag17
ag17
aI0
ag17
ag17
ag17
ag17
ag17
ag17
aI0
aI0
ag17
ag17
ag17
ag17
ag17
ag17
aI0
ag17
ag17
ag17
ag17
ag17
ag17
aI0
ag17
ag17
ag17
ag17
ag17
ag17
aI0
ag17
ag17
ag17
ag17
ag17
ag17
aI0
ag17
ag17
ag17
ag17
ag17
ag17
aI0
aI0
ag17
ag17
ag17
ag17
ag17
ag17
aI0
ag17
ag17
ag7506
ag17
ag17
ag17
aI0
ag7485
ag17
ag17
ag17
ag17
ag7482
aI0
ag17
ag17
ag17
ag7500
ag17
ag17
aI0
ag17
ag17
ag17
ag17
ag17
ag17
aI0
aI0
ag17
ag17
ag17
ag17
ag17
ag17
aI0
ag17
ag7497
ag17
ag17
ag17
ag17
aI0
ag17
ag7518
ag17
ag17
ag7491
ag17
aI0
ag17
ag17
ag17
ag17
ag7515
ag17
aI0
ag17
ag17
ag17
ag17
ag17
ag17
aI0
aI0
ag17
ag17
ag17
ag17
ag17
ag17
aI0
ag7485
ag17
ag17
ag17
ag17
ag7482
aI0
ag17
ag17
ag17
ag17
ag17
ag17
aI0
ag7524
ag17
ag17
ag17
ag17
ag7521
aI0
ag17
ag17
ag17
ag17
ag17
ag17
aI0
aI0
aI0
aI0
aI0
aI0
aI0
aI0
aI0
aI0
aI0
aI0
aI0
aI0
aI0
aI0
aI0
aI0
aI0
aI0
aI0
aI0
aI0
aI0
aI0
aI0
aI0
aI0
aI0
aI0
aI0
aI0
aI0
aI0
aI0
aI0
aI0
aI0
ag17
ag17
ag17
ag17
ag17
ag17
aI0
ag17
ag17
ag17
ag17
ag17
ag17
aI0
ag17
ag17
ag17
ag17
ag17
ag17
aI0
ag17
ag17
ag17
ag17
ag17
ag17
aI0
ag17
ag17
ag17
ag17
ag17
ag17
aI0
aI0
ag17
ag17
ag17
ag17
ag17
ag17
aI0
ag17
ag17
ag17
ag17
ag17
ag17
aI0
ag17
ag17
ag17
ag17
ag17
ag17
aI0
ag17
ag17
ag17
ag17
ag17
ag17
aI0
ag17
ag17
ag17
ag17
ag17
ag17
aI0
aI0
ag17
ag17
ag17
ag17
ag17
ag17
aI0
ag17
ag17
ag17
ag17
ag17
ag17
aI0
ag17
ag17
ag17
ag17
ag17
ag17
aI0
ag17
ag17
ag17
ag17
ag17
ag17
aI0
ag17
ag17
ag17
ag17
ag17
ag17
aI0
aI0
ag17
ag17
ag17
ag17
ag17
ag17
aI0
ag17
ag17
ag17
ag17
ag17
ag17
aI0
ag17
ag17
ag17
ag17
ag17
ag17
aI0
ag17
ag17
ag17
ag17
ag17
ag17
aI0
ag17
ag17
ag17
ag17
ag17
ag17
aI0
aI0
ag17
ag17
ag17
ag17
ag17
ag17
aI0
ag17
ag17
ag17
ag17
ag17
ag17
aI0
ag17
ag17
ag17
ag17
ag17
ag17
aI0
ag17
ag17
ag17
ag17
ag17
ag17
aI0
ag17
ag17
ag17
ag17
ag17
ag17
aI0
aI0
ag17
ag17
ag17
ag17
ag17
ag17
aI0
ag17
ag17
ag17
ag17
ag17
ag17
aI0
ag17
ag17
ag17
ag17
ag17
ag17
aI0
ag17
ag17
ag17
ag17
ag17
ag17
aI0
ag17
ag17
ag17
ag17
ag17
ag17
aI0
aI0
aI0
aI0
aI0
aI0
aI0
aI0
aI0
aI0
aI0
aI0
aI0
aI0
aI0
aI0
aI0
aI0
aI0
aI0
aI0
aI0
aI0
aI0
aI0
aI0
aI0
aI0
aI0
aI0
aI0
aI0
aI0
aI0
aI0
aI0
aI0
atp7526
bsb.