(dp0
S'time'
p1
F15.357610999999999
sS'm5'
p2
cnumpy.core.multiarray
scalar
p3
(cnumpy
dtype
p4
(S'f8'
p5
I0
I1
tp6
Rp7
(I3
S'<'
p8
NNNI-1
I-1
I0
tp9
bS'^\xb6o\t\x07\x9b\xd0?'
p10
tp11
Rp12
sS'm4'
p13
g3
(g7
S'\x17\xaav\x04\xbf\xf1\xcf?'
p14
tp15
Rp16
sS'm1'
p17
g3
(g7
S'Lp\xb8\x8c4\x0f\xca?'
p18
tp19
Rp20
sS'm0'
p21
g3
(g7
S'g\x99\xfa\x1d!\x00\xc9?'
p22
tp23
Rp24
sS'm3'
p25
g3
(g7
S'U\xfa\xed\x1fYR\xcd?'
p26
tp27
Rp28
sS'm2'
p29
g3
(g7
S'\x05Ih\xe8K\x8f\xcb?'
p30
tp31
Rp32
s.