(dp0
S'alpha'
p1
cnumpy.core.multiarray
scalar
p2
(cnumpy
dtype
p3
(S'f8'
p4
I0
I1
tp5
Rp6
(I3
S'<'
p7
NNNI-1
I-1
I0
tp8
bS'P>\x8ap\xad\x9dA\xbf'
p9
tp10
Rp11
sS'ns'
p12
g2
(g6
S'0\xb4\xbe\xfcY"\xef?'
p13
tp14
Rp15
sS'time'
p16
F15.561125
s.